Archive member included to satisfy reference by file (symbol)

/usr/lib/gcc/avr/5.4.0/avr5/libgcc.a(_divmodhi4.o)
                              .build/obj_kinesis_nguyenvietyen_kinesismod/quantum/mousekey.o (__divmodhi4)
/usr/lib/gcc/avr/5.4.0/avr5/libgcc.a(_udivmodsi4.o)
                              .build/obj_kinesis_nguyenvietyen_kinesismod/quantum/quantum.o (__udivmodsi4)
/usr/lib/gcc/avr/5.4.0/avr5/libgcc.a(_exit.o)
                              /usr/lib/gcc/avr/5.4.0/../../../avr/lib/avr5/crtatmega32u4.o (exit)
/usr/lib/gcc/avr/5.4.0/avr5/libgcc.a(_tablejump2.o)
                              .build/obj_kinesis_nguyenvietyen_kinesismod/quantum/action.o (__tablejump2__)
/usr/lib/gcc/avr/5.4.0/avr5/libgcc.a(_copy_data.o)
                              .build/obj_kinesis_nguyenvietyen_kinesismod/quantum/quantum.o (__do_copy_data)
/usr/lib/gcc/avr/5.4.0/avr5/libgcc.a(_clear_bss.o)
                              .build/obj_kinesis_nguyenvietyen_kinesismod/quantum/quantum.o (__do_clear_bss)
/usr/lib/gcc/avr/5.4.0/avr5/libgcc.a(_prologue.o)
                              .build/obj_kinesis_nguyenvietyen_kinesismod/quantum/quantum.o (__prologue_saves__)
/usr/lib/gcc/avr/5.4.0/avr5/libgcc.a(_epilogue.o)
                              .build/obj_kinesis_nguyenvietyen_kinesismod/quantum/quantum.o (__epilogue_restores__)
/usr/lib/gcc/avr/5.4.0/avr5/libgcc.a(_udivmodhi4.o)
                              /usr/lib/gcc/avr/5.4.0/avr5/libgcc.a(_divmodhi4.o) (__udivmodhi4)
/usr/lib/gcc/avr/5.4.0/../../../avr/lib/avr5/libc.a(memcmp.o)
                              .build/obj_kinesis_nguyenvietyen_kinesismod/quantum/action_util.o (memcmp)
/usr/lib/gcc/avr/5.4.0/../../../avr/lib/avr5/libc.a(memcpy.o)
                              .build/obj_kinesis_nguyenvietyen_kinesismod/quantum/debounce/sym_defer_g.o (memcpy)
/usr/lib/gcc/avr/5.4.0/../../../avr/lib/avr5/libatmega32u4.a(eerd_byte.o)
                              .build/obj_kinesis_nguyenvietyen_kinesismod/quantum/eeconfig.o (eeprom_read_byte)
/usr/lib/gcc/avr/5.4.0/../../../avr/lib/avr5/libatmega32u4.a(eerd_dword.o)
                              .build/obj_kinesis_nguyenvietyen_kinesismod/quantum/eeconfig.o (eeprom_read_dword)
/usr/lib/gcc/avr/5.4.0/../../../avr/lib/avr5/libatmega32u4.a(eerd_word.o)
                              .build/obj_kinesis_nguyenvietyen_kinesismod/quantum/eeconfig.o (eeprom_read_word)
/usr/lib/gcc/avr/5.4.0/../../../avr/lib/avr5/libatmega32u4.a(eeupd_block.o)
                              .build/obj_kinesis_nguyenvietyen_kinesismod/quantum/eeconfig.o (eeprom_update_block)
/usr/lib/gcc/avr/5.4.0/../../../avr/lib/avr5/libatmega32u4.a(eeupd_byte.o)
                              .build/obj_kinesis_nguyenvietyen_kinesismod/quantum/eeconfig.o (eeprom_update_byte)
/usr/lib/gcc/avr/5.4.0/../../../avr/lib/avr5/libatmega32u4.a(eeupd_dword.o)
                              .build/obj_kinesis_nguyenvietyen_kinesismod/quantum/eeconfig.o (eeprom_update_dword)
/usr/lib/gcc/avr/5.4.0/../../../avr/lib/avr5/libatmega32u4.a(eeupd_word.o)
                              .build/obj_kinesis_nguyenvietyen_kinesismod/quantum/eeconfig.o (eeprom_update_word)
/usr/lib/gcc/avr/5.4.0/../../../avr/lib/avr5/libatmega32u4.a(eerd_block.o)
                              /usr/lib/gcc/avr/5.4.0/../../../avr/lib/avr5/libatmega32u4.a(eerd_dword.o) (eeprom_read_blraw)

Allocating common symbols
Common symbol       size              file

USB_IsInitialized   0x1               .build/obj_kinesis_nguyenvietyen_kinesismod/lib/lufa/LUFA/Drivers/USB/Core/USBTask.o
keymap_config       0x2               .build/obj_kinesis_nguyenvietyen_kinesismod/quantum/keycode_config.o
USB_DeviceState     0x1               .build/obj_kinesis_nguyenvietyen_kinesismod/lib/lufa/LUFA/Drivers/USB/Core/USBTask.o
USB_Device_ConfigurationNumber
                    0x1               .build/obj_kinesis_nguyenvietyen_kinesismod/lib/lufa/LUFA/Drivers/USB/Core/DeviceStandardReq.o
raw_matrix          0x10              .build/obj_kinesis_nguyenvietyen_kinesismod/quantum/matrix_common.o
USB_Device_CurrentlySelfPowered
                    0x1               .build/obj_kinesis_nguyenvietyen_kinesismod/lib/lufa/LUFA/Drivers/USB/Core/DeviceStandardReq.o
matrix              0x10              .build/obj_kinesis_nguyenvietyen_kinesismod/quantum/matrix_common.o
USB_ControlRequest  0x8               .build/obj_kinesis_nguyenvietyen_kinesismod/lib/lufa/LUFA/Drivers/USB/Core/USBTask.o
tp_buttons          0x2               .build/obj_kinesis_nguyenvietyen_kinesismod/quantum/action.o
USB_Device_RemoteWakeupEnabled
                    0x1               .build/obj_kinesis_nguyenvietyen_kinesismod/lib/lufa/LUFA/Drivers/USB/Core/DeviceStandardReq.o
timer_count         0x4               .build/obj_kinesis_nguyenvietyen_kinesismod/platforms/avr/timer.o

Discarded input sections

 .data          0x0000000000000000        0x0 /usr/lib/gcc/avr/5.4.0/../../../avr/lib/avr5/crtatmega32u4.o
 .bss           0x0000000000000000        0x0 /usr/lib/gcc/avr/5.4.0/../../../avr/lib/avr5/crtatmega32u4.o
 .text          0x0000000000000000        0x0 .build/obj_kinesis_nguyenvietyen_kinesismod/matrix.o
 .data          0x0000000000000000        0x0 .build/obj_kinesis_nguyenvietyen_kinesismod/matrix.o
 .bss           0x0000000000000000        0x0 .build/obj_kinesis_nguyenvietyen_kinesismod/matrix.o
 .text          0x0000000000000000        0x0 .build/obj_kinesis_nguyenvietyen_kinesismod/.build/obj_kinesis_nguyenvietyen_kinesismod/src/default_keyboard.o
 .data          0x0000000000000000        0x0 .build/obj_kinesis_nguyenvietyen_kinesismod/.build/obj_kinesis_nguyenvietyen_kinesismod/src/default_keyboard.o
 .bss           0x0000000000000000        0x0 .build/obj_kinesis_nguyenvietyen_kinesismod/.build/obj_kinesis_nguyenvietyen_kinesismod/src/default_keyboard.o
 .debug_info    0x0000000000000000       0x72 .build/obj_kinesis_nguyenvietyen_kinesismod/.build/obj_kinesis_nguyenvietyen_kinesismod/src/default_keyboard.o
 .debug_abbrev  0x0000000000000000       0x26 .build/obj_kinesis_nguyenvietyen_kinesismod/.build/obj_kinesis_nguyenvietyen_kinesismod/src/default_keyboard.o
 .debug_aranges
                0x0000000000000000       0x18 .build/obj_kinesis_nguyenvietyen_kinesismod/.build/obj_kinesis_nguyenvietyen_kinesismod/src/default_keyboard.o
 .debug_line    0x0000000000000000       0x1a .build/obj_kinesis_nguyenvietyen_kinesismod/.build/obj_kinesis_nguyenvietyen_kinesismod/src/default_keyboard.o
 .debug_str     0x0000000000000000      0x1f6 .build/obj_kinesis_nguyenvietyen_kinesismod/.build/obj_kinesis_nguyenvietyen_kinesismod/src/default_keyboard.o
 .comment       0x0000000000000000       0x12 .build/obj_kinesis_nguyenvietyen_kinesismod/.build/obj_kinesis_nguyenvietyen_kinesismod/src/default_keyboard.o
 .text          0x0000000000000000        0x0 .build/obj_kinesis_nguyenvietyen_kinesismod/quantum/keymap_introspection.o
 .data          0x0000000000000000        0x0 .build/obj_kinesis_nguyenvietyen_kinesismod/quantum/keymap_introspection.o
 .bss           0x0000000000000000        0x0 .build/obj_kinesis_nguyenvietyen_kinesismod/quantum/keymap_introspection.o
 .text.keymap_layer_count_raw
                0x0000000000000000        0x4 .build/obj_kinesis_nguyenvietyen_kinesismod/quantum/keymap_introspection.o
 .text.keymap_layer_count
                0x0000000000000000        0x4 .build/obj_kinesis_nguyenvietyen_kinesismod/quantum/keymap_introspection.o
 .text          0x0000000000000000        0x0 .build/obj_kinesis_nguyenvietyen_kinesismod/quantum/quantum.o
 .data          0x0000000000000000        0x0 .build/obj_kinesis_nguyenvietyen_kinesismod/quantum/quantum.o
 .bss           0x0000000000000000        0x0 .build/obj_kinesis_nguyenvietyen_kinesismod/quantum/quantum.o
 .text.extract_mod_bits
                0x0000000000000000       0x5a .build/obj_kinesis_nguyenvietyen_kinesismod/quantum/quantum.o
 .text.do_code16
                0x0000000000000000       0x14 .build/obj_kinesis_nguyenvietyen_kinesismod/quantum/quantum.o
 .text.register_code16
                0x0000000000000000       0x2e .build/obj_kinesis_nguyenvietyen_kinesismod/quantum/quantum.o
 .text.unregister_code16
                0x0000000000000000       0x2e .build/obj_kinesis_nguyenvietyen_kinesismod/quantum/quantum.o
 .text.tap_code16_delay
                0x0000000000000000       0x34 .build/obj_kinesis_nguyenvietyen_kinesismod/quantum/quantum.o
 .text.tap_code16
                0x0000000000000000       0x16 .build/obj_kinesis_nguyenvietyen_kinesismod/quantum/quantum.o
 .text.set_single_persistent_default_layer
                0x0000000000000000       0x24 .build/obj_kinesis_nguyenvietyen_kinesismod/quantum/quantum.o
 .text.get_numeric_str
                0x0000000000000000       0xb4 .build/obj_kinesis_nguyenvietyen_kinesismod/quantum/quantum.o
 .text.get_u8_str
                0x0000000000000000       0x3a .build/obj_kinesis_nguyenvietyen_kinesismod/quantum/quantum.o
 .text.get_u16_str
                0x0000000000000000       0x42 .build/obj_kinesis_nguyenvietyen_kinesismod/quantum/quantum.o
 .bss.buf.5117  0x0000000000000000        0x6 .build/obj_kinesis_nguyenvietyen_kinesismod/quantum/quantum.o
 .bss.last_pad.5119
                0x0000000000000000        0x1 .build/obj_kinesis_nguyenvietyen_kinesismod/quantum/quantum.o
 .data.last_num.5118
                0x0000000000000000        0x2 .build/obj_kinesis_nguyenvietyen_kinesismod/quantum/quantum.o
 .bss.buf.5110  0x0000000000000000        0x4 .build/obj_kinesis_nguyenvietyen_kinesismod/quantum/quantum.o
 .bss.last_pad.5112
                0x0000000000000000        0x1 .build/obj_kinesis_nguyenvietyen_kinesismod/quantum/quantum.o
 .data.last_num.5111
                0x0000000000000000        0x1 .build/obj_kinesis_nguyenvietyen_kinesismod/quantum/quantum.o
 .text          0x0000000000000000        0x0 .build/obj_kinesis_nguyenvietyen_kinesismod/quantum/bitwise.o
 .data          0x0000000000000000        0x0 .build/obj_kinesis_nguyenvietyen_kinesismod/quantum/bitwise.o
 .bss           0x0000000000000000        0x0 .build/obj_kinesis_nguyenvietyen_kinesismod/quantum/bitwise.o
 .text.bitpop   0x0000000000000000       0x14 .build/obj_kinesis_nguyenvietyen_kinesismod/quantum/bitwise.o
 .text.bitpop16
                0x0000000000000000       0x18 .build/obj_kinesis_nguyenvietyen_kinesismod/quantum/bitwise.o
 .text.bitpop32
                0x0000000000000000       0x3a .build/obj_kinesis_nguyenvietyen_kinesismod/quantum/bitwise.o
 .text.biton    0x0000000000000000       0x28 .build/obj_kinesis_nguyenvietyen_kinesismod/quantum/bitwise.o
 .text.biton16  0x0000000000000000       0x4c .build/obj_kinesis_nguyenvietyen_kinesismod/quantum/bitwise.o
 .text.biton32  0x0000000000000000       0xa0 .build/obj_kinesis_nguyenvietyen_kinesismod/quantum/bitwise.o
 .text.bitrev   0x0000000000000000       0x24 .build/obj_kinesis_nguyenvietyen_kinesismod/quantum/bitwise.o
 .text.bitrev16
                0x0000000000000000       0x26 .build/obj_kinesis_nguyenvietyen_kinesismod/quantum/bitwise.o
 .text.bitrev32
                0x0000000000000000       0x4a .build/obj_kinesis_nguyenvietyen_kinesismod/quantum/bitwise.o
 .debug_info    0x0000000000000000      0x2a2 .build/obj_kinesis_nguyenvietyen_kinesismod/quantum/bitwise.o
 .debug_abbrev  0x0000000000000000       0xcb .build/obj_kinesis_nguyenvietyen_kinesismod/quantum/bitwise.o
 .debug_loc     0x0000000000000000      0x4a3 .build/obj_kinesis_nguyenvietyen_kinesismod/quantum/bitwise.o
 .debug_aranges
                0x0000000000000000       0x60 .build/obj_kinesis_nguyenvietyen_kinesismod/quantum/bitwise.o
 .debug_ranges  0x0000000000000000       0x50 .build/obj_kinesis_nguyenvietyen_kinesismod/quantum/bitwise.o
 .debug_line    0x0000000000000000      0x259 .build/obj_kinesis_nguyenvietyen_kinesismod/quantum/bitwise.o
 .debug_str     0x0000000000000000      0x20c .build/obj_kinesis_nguyenvietyen_kinesismod/quantum/bitwise.o
 .comment       0x0000000000000000       0x12 .build/obj_kinesis_nguyenvietyen_kinesismod/quantum/bitwise.o
 .debug_frame   0x0000000000000000       0xec .build/obj_kinesis_nguyenvietyen_kinesismod/quantum/bitwise.o
 .text          0x0000000000000000        0x0 .build/obj_kinesis_nguyenvietyen_kinesismod/quantum/led.o
 .data          0x0000000000000000        0x0 .build/obj_kinesis_nguyenvietyen_kinesismod/quantum/led.o
 .bss           0x0000000000000000        0x0 .build/obj_kinesis_nguyenvietyen_kinesismod/quantum/led.o
 .text.last_led_activity_time
                0x0000000000000000       0x12 .build/obj_kinesis_nguyenvietyen_kinesismod/quantum/led.o
 .text.last_led_activity_elapsed
                0x0000000000000000       0x16 .build/obj_kinesis_nguyenvietyen_kinesismod/quantum/led.o
 .text.led_suspend
                0x0000000000000000        0x8 .build/obj_kinesis_nguyenvietyen_kinesismod/quantum/led.o
 .text          0x0000000000000000        0x0 .build/obj_kinesis_nguyenvietyen_kinesismod/quantum/action.o
 .data          0x0000000000000000        0x0 .build/obj_kinesis_nguyenvietyen_kinesismod/quantum/action.o
 .bss           0x0000000000000000        0x0 .build/obj_kinesis_nguyenvietyen_kinesismod/quantum/action.o
 .text.process_record_quantum
                0x0000000000000000        0x4 .build/obj_kinesis_nguyenvietyen_kinesismod/quantum/action.o
 .text.post_process_record_quantum
                0x0000000000000000        0x2 .build/obj_kinesis_nguyenvietyen_kinesismod/quantum/action.o
 .text.process_record_nocache
                0x0000000000000000       0x10 .build/obj_kinesis_nguyenvietyen_kinesismod/quantum/action.o
 .text.register_weak_mods
                0x0000000000000000        0xe .build/obj_kinesis_nguyenvietyen_kinesismod/quantum/action.o
 .text.debug_action
                0x0000000000000000        0x2 .build/obj_kinesis_nguyenvietyen_kinesismod/quantum/action.o
 COMMON         0x0000000000000000        0x2 .build/obj_kinesis_nguyenvietyen_kinesismod/quantum/action.o
 .text          0x0000000000000000        0x0 .build/obj_kinesis_nguyenvietyen_kinesismod/quantum/action_layer.o
 .data          0x0000000000000000        0x0 .build/obj_kinesis_nguyenvietyen_kinesismod/quantum/action_layer.o
 .bss           0x0000000000000000        0x0 .build/obj_kinesis_nguyenvietyen_kinesismod/quantum/action_layer.o
 .text.layer_state_cmp
                0x0000000000000000       0x28 .build/obj_kinesis_nguyenvietyen_kinesismod/quantum/action_layer.o
 .text.layer_state_is
                0x0000000000000000       0x10 .build/obj_kinesis_nguyenvietyen_kinesismod/quantum/action_layer.o
 .text.update_tri_layer_state
                0x0000000000000000       0x4a .build/obj_kinesis_nguyenvietyen_kinesismod/quantum/action_layer.o
 .text.update_tri_layer
                0x0000000000000000       0x18 .build/obj_kinesis_nguyenvietyen_kinesismod/quantum/action_layer.o
 .text          0x0000000000000000        0x0 .build/obj_kinesis_nguyenvietyen_kinesismod/quantum/action_tapping.o
 .data          0x0000000000000000        0x0 .build/obj_kinesis_nguyenvietyen_kinesismod/quantum/action_tapping.o
 .bss           0x0000000000000000        0x0 .build/obj_kinesis_nguyenvietyen_kinesismod/quantum/action_tapping.o
 .text          0x0000000000000000        0x0 .build/obj_kinesis_nguyenvietyen_kinesismod/quantum/action_util.o
 .data          0x0000000000000000        0x0 .build/obj_kinesis_nguyenvietyen_kinesismod/quantum/action_util.o
 .bss           0x0000000000000000        0x0 .build/obj_kinesis_nguyenvietyen_kinesismod/quantum/action_util.o
 .text.add_key  0x0000000000000000        0x6 .build/obj_kinesis_nguyenvietyen_kinesismod/quantum/action_util.o
 .text.del_key  0x0000000000000000        0x6 .build/obj_kinesis_nguyenvietyen_kinesismod/quantum/action_util.o
 .text.clear_keys
                0x0000000000000000        0x6 .build/obj_kinesis_nguyenvietyen_kinesismod/quantum/action_util.o
 .text.get_oneshot_locked_mods
                0x0000000000000000        0x6 .build/obj_kinesis_nguyenvietyen_kinesismod/quantum/action_util.o
 .text.has_oneshot_mods_timed_out
                0x0000000000000000        0x4 .build/obj_kinesis_nguyenvietyen_kinesismod/quantum/action_util.o
 .text.is_oneshot_enabled
                0x0000000000000000        0xc .build/obj_kinesis_nguyenvietyen_kinesismod/quantum/action_util.o
 .text.set_mods
                0x0000000000000000        0x6 .build/obj_kinesis_nguyenvietyen_kinesismod/quantum/action_util.o
 .text.get_weak_mods
                0x0000000000000000        0x6 .build/obj_kinesis_nguyenvietyen_kinesismod/quantum/action_util.o
 .text.set_weak_mods
                0x0000000000000000        0x6 .build/obj_kinesis_nguyenvietyen_kinesismod/quantum/action_util.o
 .text.set_oneshot_mods
                0x0000000000000000       0x1a .build/obj_kinesis_nguyenvietyen_kinesismod/quantum/action_util.o
 .text.add_oneshot_locked_mods
                0x0000000000000000       0x18 .build/obj_kinesis_nguyenvietyen_kinesismod/quantum/action_util.o
 .text.set_oneshot_locked_mods
                0x0000000000000000       0x12 .build/obj_kinesis_nguyenvietyen_kinesismod/quantum/action_util.o
 .text.clear_oneshot_locked_mods
                0x0000000000000000       0x14 .build/obj_kinesis_nguyenvietyen_kinesismod/quantum/action_util.o
 .text.has_anymod
                0x0000000000000000        0xa .build/obj_kinesis_nguyenvietyen_kinesismod/quantum/action_util.o
 .text          0x0000000000000000        0x0 .build/obj_kinesis_nguyenvietyen_kinesismod/quantum/eeconfig.o
 .data          0x0000000000000000        0x0 .build/obj_kinesis_nguyenvietyen_kinesismod/quantum/eeconfig.o
 .bss           0x0000000000000000        0x0 .build/obj_kinesis_nguyenvietyen_kinesismod/quantum/eeconfig.o
 .text.eeconfig_enable
                0x0000000000000000        0xe .build/obj_kinesis_nguyenvietyen_kinesismod/quantum/eeconfig.o
 .text.eeconfig_is_disabled
                0x0000000000000000       0x14 .build/obj_kinesis_nguyenvietyen_kinesismod/quantum/eeconfig.o
 .text.eeconfig_update_debug
                0x0000000000000000        0xc .build/obj_kinesis_nguyenvietyen_kinesismod/quantum/eeconfig.o
 .text.eeconfig_update_default_layer
                0x0000000000000000        0xc .build/obj_kinesis_nguyenvietyen_kinesismod/quantum/eeconfig.o
 .text.eeconfig_read_audio
                0x0000000000000000        0xa .build/obj_kinesis_nguyenvietyen_kinesismod/quantum/eeconfig.o
 .text.eeconfig_update_audio
                0x0000000000000000        0xc .build/obj_kinesis_nguyenvietyen_kinesismod/quantum/eeconfig.o
 .text.eeconfig_read_kb
                0x0000000000000000        0xa .build/obj_kinesis_nguyenvietyen_kinesismod/quantum/eeconfig.o
 .text.eeconfig_read_user
                0x0000000000000000        0xa .build/obj_kinesis_nguyenvietyen_kinesismod/quantum/eeconfig.o
 .text.eeconfig_read_haptic
                0x0000000000000000        0xa .build/obj_kinesis_nguyenvietyen_kinesismod/quantum/eeconfig.o
 .text.eeconfig_update_haptic
                0x0000000000000000        0xe .build/obj_kinesis_nguyenvietyen_kinesismod/quantum/eeconfig.o
 .text.eeconfig_read_handedness
                0x0000000000000000       0x14 .build/obj_kinesis_nguyenvietyen_kinesismod/quantum/eeconfig.o
 .text          0x0000000000000000        0x0 .build/obj_kinesis_nguyenvietyen_kinesismod/quantum/keyboard.o
 .data          0x0000000000000000        0x0 .build/obj_kinesis_nguyenvietyen_kinesismod/quantum/keyboard.o
 .bss           0x0000000000000000        0x0 .build/obj_kinesis_nguyenvietyen_kinesismod/quantum/keyboard.o
 .text.last_input_activity_time
                0x0000000000000000       0x12 .build/obj_kinesis_nguyenvietyen_kinesismod/quantum/keyboard.o
 .text.last_input_activity_elapsed
                0x0000000000000000       0x16 .build/obj_kinesis_nguyenvietyen_kinesismod/quantum/keyboard.o
 .text.last_matrix_activity_time
                0x0000000000000000       0x12 .build/obj_kinesis_nguyenvietyen_kinesismod/quantum/keyboard.o
 .text.last_matrix_activity_elapsed
                0x0000000000000000       0x16 .build/obj_kinesis_nguyenvietyen_kinesismod/quantum/keyboard.o
 .text.last_encoder_activity_time
                0x0000000000000000       0x12 .build/obj_kinesis_nguyenvietyen_kinesismod/quantum/keyboard.o
 .text.last_encoder_activity_elapsed
                0x0000000000000000       0x16 .build/obj_kinesis_nguyenvietyen_kinesismod/quantum/keyboard.o
 .text.last_encoder_activity_trigger
                0x0000000000000000       0x26 .build/obj_kinesis_nguyenvietyen_kinesismod/quantum/keyboard.o
 .text.last_pointing_device_activity_time
                0x0000000000000000       0x12 .build/obj_kinesis_nguyenvietyen_kinesismod/quantum/keyboard.o
 .text.last_pointing_device_activity_elapsed
                0x0000000000000000       0x16 .build/obj_kinesis_nguyenvietyen_kinesismod/quantum/keyboard.o
 .text.last_pointing_device_activity_trigger
                0x0000000000000000       0x26 .build/obj_kinesis_nguyenvietyen_kinesismod/quantum/keyboard.o
 .text.set_activity_timestamps
                0x0000000000000000       0x86 .build/obj_kinesis_nguyenvietyen_kinesismod/quantum/keyboard.o
 .text.is_keyboard_left
                0x0000000000000000        0x4 .build/obj_kinesis_nguyenvietyen_kinesismod/quantum/keyboard.o
 .text.switch_events
                0x0000000000000000        0x2 .build/obj_kinesis_nguyenvietyen_kinesismod/quantum/keyboard.o
 .text.quantum_task
                0x0000000000000000        0x6 .build/obj_kinesis_nguyenvietyen_kinesismod/quantum/keyboard.o
 .bss.last_pointing_device_modification_time
                0x0000000000000000        0x4 .build/obj_kinesis_nguyenvietyen_kinesismod/quantum/keyboard.o
 .bss.last_encoder_modification_time
                0x0000000000000000        0x4 .build/obj_kinesis_nguyenvietyen_kinesismod/quantum/keyboard.o
 .text          0x0000000000000000        0x0 .build/obj_kinesis_nguyenvietyen_kinesismod/quantum/keymap_common.o
 .data          0x0000000000000000        0x0 .build/obj_kinesis_nguyenvietyen_kinesismod/quantum/keymap_common.o
 .bss           0x0000000000000000        0x0 .build/obj_kinesis_nguyenvietyen_kinesismod/quantum/keymap_common.o
 .text          0x0000000000000000        0x0 .build/obj_kinesis_nguyenvietyen_kinesismod/quantum/keycode_config.o
 .data          0x0000000000000000        0x0 .build/obj_kinesis_nguyenvietyen_kinesismod/quantum/keycode_config.o
 .bss           0x0000000000000000        0x0 .build/obj_kinesis_nguyenvietyen_kinesismod/quantum/keycode_config.o
 .text          0x0000000000000000        0x0 .build/obj_kinesis_nguyenvietyen_kinesismod/quantum/sync_timer.o
 .data          0x0000000000000000        0x0 .build/obj_kinesis_nguyenvietyen_kinesismod/quantum/sync_timer.o
 .bss           0x0000000000000000        0x0 .build/obj_kinesis_nguyenvietyen_kinesismod/quantum/sync_timer.o
 .debug_info    0x0000000000000000       0x5d .build/obj_kinesis_nguyenvietyen_kinesismod/quantum/sync_timer.o
 .debug_abbrev  0x0000000000000000       0x26 .build/obj_kinesis_nguyenvietyen_kinesismod/quantum/sync_timer.o
 .debug_aranges
                0x0000000000000000       0x18 .build/obj_kinesis_nguyenvietyen_kinesismod/quantum/sync_timer.o
 .debug_line    0x0000000000000000       0x1a .build/obj_kinesis_nguyenvietyen_kinesismod/quantum/sync_timer.o
 .debug_str     0x0000000000000000      0x1ae .build/obj_kinesis_nguyenvietyen_kinesismod/quantum/sync_timer.o
 .comment       0x0000000000000000       0x12 .build/obj_kinesis_nguyenvietyen_kinesismod/quantum/sync_timer.o
 .text          0x0000000000000000        0x0 .build/obj_kinesis_nguyenvietyen_kinesismod/quantum/logging/debug.o
 .data          0x0000000000000000        0x0 .build/obj_kinesis_nguyenvietyen_kinesismod/quantum/logging/debug.o
 .bss           0x0000000000000000        0x0 .build/obj_kinesis_nguyenvietyen_kinesismod/quantum/logging/debug.o
 .text          0x0000000000000000        0x0 .build/obj_kinesis_nguyenvietyen_kinesismod/quantum/logging/sendchar.o
 .data          0x0000000000000000        0x0 .build/obj_kinesis_nguyenvietyen_kinesismod/quantum/logging/sendchar.o
 .bss           0x0000000000000000        0x0 .build/obj_kinesis_nguyenvietyen_kinesismod/quantum/logging/sendchar.o
 .text          0x0000000000000000        0x0 .build/obj_kinesis_nguyenvietyen_kinesismod/quantum/matrix_common.o
 .data          0x0000000000000000        0x0 .build/obj_kinesis_nguyenvietyen_kinesismod/quantum/matrix_common.o
 .bss           0x0000000000000000        0x0 .build/obj_kinesis_nguyenvietyen_kinesismod/quantum/matrix_common.o
 .text.matrix_rows
                0x0000000000000000        0x4 .build/obj_kinesis_nguyenvietyen_kinesismod/quantum/matrix_common.o
 .text.matrix_cols
                0x0000000000000000        0x4 .build/obj_kinesis_nguyenvietyen_kinesismod/quantum/matrix_common.o
 .text.matrix_is_on
                0x0000000000000000       0x2a .build/obj_kinesis_nguyenvietyen_kinesismod/quantum/matrix_common.o
 .text.matrix_output_select_delay
                0x0000000000000000        0x4 .build/obj_kinesis_nguyenvietyen_kinesismod/quantum/matrix_common.o
 .text.matrix_output_unselect_delay
                0x0000000000000000        0x6 .build/obj_kinesis_nguyenvietyen_kinesismod/quantum/matrix_common.o
 .text.matrix_scan_custom
                0x0000000000000000        0x4 .build/obj_kinesis_nguyenvietyen_kinesismod/quantum/matrix_common.o
 .text.peek_matrix
                0x0000000000000000       0x24 .build/obj_kinesis_nguyenvietyen_kinesismod/quantum/matrix_common.o
 .text          0x0000000000000000        0x0 .build/obj_kinesis_nguyenvietyen_kinesismod/quantum/debounce/sym_defer_g.o
 .data          0x0000000000000000        0x0 .build/obj_kinesis_nguyenvietyen_kinesismod/quantum/debounce/sym_defer_g.o
 .bss           0x0000000000000000        0x0 .build/obj_kinesis_nguyenvietyen_kinesismod/quantum/debounce/sym_defer_g.o
 .text.debounce_free
                0x0000000000000000        0x2 .build/obj_kinesis_nguyenvietyen_kinesismod/quantum/debounce/sym_defer_g.o
 .text          0x0000000000000000        0x0 .build/obj_kinesis_nguyenvietyen_kinesismod/quantum/main.o
 .data          0x0000000000000000        0x0 .build/obj_kinesis_nguyenvietyen_kinesismod/quantum/main.o
 .bss           0x0000000000000000        0x0 .build/obj_kinesis_nguyenvietyen_kinesismod/quantum/main.o
 .text          0x0000000000000000      0x15c .build/obj_kinesis_nguyenvietyen_kinesismod/platforms/avr/xprintf.o
 .data          0x0000000000000000        0x0 .build/obj_kinesis_nguyenvietyen_kinesismod/platforms/avr/xprintf.o
 .text          0x0000000000000000        0x0 .build/obj_kinesis_nguyenvietyen_kinesismod/platforms/avr/printf.o
 .data          0x0000000000000000        0x0 .build/obj_kinesis_nguyenvietyen_kinesismod/platforms/avr/printf.o
 .bss           0x0000000000000000        0x0 .build/obj_kinesis_nguyenvietyen_kinesismod/platforms/avr/printf.o
 .text          0x0000000000000000        0x0 .build/obj_kinesis_nguyenvietyen_kinesismod/platforms/avr/sleep_led.o
 .data          0x0000000000000000        0x0 .build/obj_kinesis_nguyenvietyen_kinesismod/platforms/avr/sleep_led.o
 .bss           0x0000000000000000        0x0 .build/obj_kinesis_nguyenvietyen_kinesismod/platforms/avr/sleep_led.o
 .text.sleep_led_toggle
                0x0000000000000000        0xe .build/obj_kinesis_nguyenvietyen_kinesismod/platforms/avr/sleep_led.o
 .text          0x0000000000000000        0x0 .build/obj_kinesis_nguyenvietyen_kinesismod/quantum/process_keycode/process_caps_word.o
 .data          0x0000000000000000        0x0 .build/obj_kinesis_nguyenvietyen_kinesismod/quantum/process_keycode/process_caps_word.o
 .bss           0x0000000000000000        0x0 .build/obj_kinesis_nguyenvietyen_kinesismod/quantum/process_keycode/process_caps_word.o
 .text.caps_word_press_user
                0x0000000000000000       0x3a .build/obj_kinesis_nguyenvietyen_kinesismod/quantum/process_keycode/process_caps_word.o
 .text          0x0000000000000000        0x0 .build/obj_kinesis_nguyenvietyen_kinesismod/quantum/caps_word.o
 .data          0x0000000000000000        0x0 .build/obj_kinesis_nguyenvietyen_kinesismod/quantum/caps_word.o
 .bss           0x0000000000000000        0x0 .build/obj_kinesis_nguyenvietyen_kinesismod/quantum/caps_word.o
 .text          0x0000000000000000        0x0 .build/obj_kinesis_nguyenvietyen_kinesismod/quantum/process_keycode/process_grave_esc.o
 .data          0x0000000000000000        0x0 .build/obj_kinesis_nguyenvietyen_kinesismod/quantum/process_keycode/process_grave_esc.o
 .bss           0x0000000000000000        0x0 .build/obj_kinesis_nguyenvietyen_kinesismod/quantum/process_keycode/process_grave_esc.o
 .text          0x0000000000000000        0x0 .build/obj_kinesis_nguyenvietyen_kinesismod/quantum/process_keycode/process_magic.o
 .data          0x0000000000000000        0x0 .build/obj_kinesis_nguyenvietyen_kinesismod/quantum/process_keycode/process_magic.o
 .bss           0x0000000000000000        0x0 .build/obj_kinesis_nguyenvietyen_kinesismod/quantum/process_keycode/process_magic.o
 .text          0x0000000000000000        0x0 .build/obj_kinesis_nguyenvietyen_kinesismod/quantum/mousekey.o
 .data          0x0000000000000000        0x0 .build/obj_kinesis_nguyenvietyen_kinesismod/quantum/mousekey.o
 .bss           0x0000000000000000        0x0 .build/obj_kinesis_nguyenvietyen_kinesismod/quantum/mousekey.o
 .text.mousekey_get_report
                0x0000000000000000       0x36 .build/obj_kinesis_nguyenvietyen_kinesismod/quantum/mousekey.o
 .text          0x0000000000000000        0x0 .build/obj_kinesis_nguyenvietyen_kinesismod/quantum/send_string/send_string.o
 .data          0x0000000000000000        0x0 .build/obj_kinesis_nguyenvietyen_kinesismod/quantum/send_string/send_string.o
 .bss           0x0000000000000000        0x0 .build/obj_kinesis_nguyenvietyen_kinesismod/quantum/send_string/send_string.o
 .text.send_char_with_delay
                0x0000000000000000      0x164 .build/obj_kinesis_nguyenvietyen_kinesismod/quantum/send_string/send_string.o
 .text.send_string_with_delay
                0x0000000000000000       0xd2 .build/obj_kinesis_nguyenvietyen_kinesismod/quantum/send_string/send_string.o
 .text.send_string
                0x0000000000000000        0x8 .build/obj_kinesis_nguyenvietyen_kinesismod/quantum/send_string/send_string.o
 .text.send_char
                0x0000000000000000        0x8 .build/obj_kinesis_nguyenvietyen_kinesismod/quantum/send_string/send_string.o
 .text.send_nibble
                0x0000000000000000       0x16 .build/obj_kinesis_nguyenvietyen_kinesismod/quantum/send_string/send_string.o
 .text.send_byte
                0x0000000000000000       0x18 .build/obj_kinesis_nguyenvietyen_kinesismod/quantum/send_string/send_string.o
 .text.send_word
                0x0000000000000000       0x14 .build/obj_kinesis_nguyenvietyen_kinesismod/quantum/send_string/send_string.o
 .text.send_dword
                0x0000000000000000       0x22 .build/obj_kinesis_nguyenvietyen_kinesismod/quantum/send_string/send_string.o
 .text.tap_random_base64
                0x0000000000000000       0x58 .build/obj_kinesis_nguyenvietyen_kinesismod/quantum/send_string/send_string.o
 .text.send_string_with_delay_P
                0x0000000000000000       0xc2 .build/obj_kinesis_nguyenvietyen_kinesismod/quantum/send_string/send_string.o
 .text.send_string_P
                0x0000000000000000        0x8 .build/obj_kinesis_nguyenvietyen_kinesismod/quantum/send_string/send_string.o
 .progmem.data.ascii_to_keycode_lut
                0x0000000000000000       0x80 .build/obj_kinesis_nguyenvietyen_kinesismod/quantum/send_string/send_string.o
 .progmem.data.ascii_to_dead_lut
                0x0000000000000000       0x10 .build/obj_kinesis_nguyenvietyen_kinesismod/quantum/send_string/send_string.o
 .progmem.data.ascii_to_altgr_lut
                0x0000000000000000       0x10 .build/obj_kinesis_nguyenvietyen_kinesismod/quantum/send_string/send_string.o
 .progmem.data.ascii_to_shift_lut
                0x0000000000000000       0x10 .build/obj_kinesis_nguyenvietyen_kinesismod/quantum/send_string/send_string.o
 .debug_info    0x0000000000000000     0x2e65 .build/obj_kinesis_nguyenvietyen_kinesismod/quantum/send_string/send_string.o
 .debug_abbrev  0x0000000000000000      0x21b .build/obj_kinesis_nguyenvietyen_kinesismod/quantum/send_string/send_string.o
 .debug_loc     0x0000000000000000      0xea0 .build/obj_kinesis_nguyenvietyen_kinesismod/quantum/send_string/send_string.o
 .debug_aranges
                0x0000000000000000       0x70 .build/obj_kinesis_nguyenvietyen_kinesismod/quantum/send_string/send_string.o
 .debug_ranges  0x0000000000000000       0x90 .build/obj_kinesis_nguyenvietyen_kinesismod/quantum/send_string/send_string.o
 .debug_line    0x0000000000000000      0x48e .build/obj_kinesis_nguyenvietyen_kinesismod/quantum/send_string/send_string.o
 .debug_str     0x0000000000000000     0x4403 .build/obj_kinesis_nguyenvietyen_kinesismod/quantum/send_string/send_string.o
 .comment       0x0000000000000000       0x12 .build/obj_kinesis_nguyenvietyen_kinesismod/quantum/send_string/send_string.o
 .debug_frame   0x0000000000000000      0x160 .build/obj_kinesis_nguyenvietyen_kinesismod/quantum/send_string/send_string.o
 .text          0x0000000000000000        0x0 .build/obj_kinesis_nguyenvietyen_kinesismod/quantum/process_keycode/process_space_cadet.o
 .data          0x0000000000000000        0x0 .build/obj_kinesis_nguyenvietyen_kinesismod/quantum/process_keycode/process_space_cadet.o
 .bss           0x0000000000000000        0x0 .build/obj_kinesis_nguyenvietyen_kinesismod/quantum/process_keycode/process_space_cadet.o
 .text.reset_space_cadet
                0x0000000000000000        0x6 .build/obj_kinesis_nguyenvietyen_kinesismod/quantum/process_keycode/process_space_cadet.o
 .text          0x0000000000000000        0x0 .build/obj_kinesis_nguyenvietyen_kinesismod/protocol/host.o
 .data          0x0000000000000000        0x0 .build/obj_kinesis_nguyenvietyen_kinesismod/protocol/host.o
 .bss           0x0000000000000000        0x0 .build/obj_kinesis_nguyenvietyen_kinesismod/protocol/host.o
 .text.host_get_driver
                0x0000000000000000        0xa .build/obj_kinesis_nguyenvietyen_kinesismod/protocol/host.o
 .text.send_joystick
                0x0000000000000000        0x2 .build/obj_kinesis_nguyenvietyen_kinesismod/protocol/host.o
 .text.send_digitizer
                0x0000000000000000        0x2 .build/obj_kinesis_nguyenvietyen_kinesismod/protocol/host.o
 .text.send_programmable_button
                0x0000000000000000        0x2 .build/obj_kinesis_nguyenvietyen_kinesismod/protocol/host.o
 .text.host_last_system_usage
                0x0000000000000000        0xa .build/obj_kinesis_nguyenvietyen_kinesismod/protocol/host.o
 .text.host_last_consumer_usage
                0x0000000000000000        0xa .build/obj_kinesis_nguyenvietyen_kinesismod/protocol/host.o
 .text          0x0000000000000000        0x0 .build/obj_kinesis_nguyenvietyen_kinesismod/protocol/report.o
 .data          0x0000000000000000        0x0 .build/obj_kinesis_nguyenvietyen_kinesismod/protocol/report.o
 .bss           0x0000000000000000        0x0 .build/obj_kinesis_nguyenvietyen_kinesismod/protocol/report.o
 .text.get_first_key
                0x0000000000000000       0x5a .build/obj_kinesis_nguyenvietyen_kinesismod/protocol/report.o
 .text          0x0000000000000000        0x0 .build/obj_kinesis_nguyenvietyen_kinesismod/protocol/usb_device_state.o
 .data          0x0000000000000000        0x0 .build/obj_kinesis_nguyenvietyen_kinesismod/protocol/usb_device_state.o
 .bss           0x0000000000000000        0x0 .build/obj_kinesis_nguyenvietyen_kinesismod/protocol/usb_device_state.o
 .text          0x0000000000000000        0x0 .build/obj_kinesis_nguyenvietyen_kinesismod/protocol/usb_util.o
 .data          0x0000000000000000        0x0 .build/obj_kinesis_nguyenvietyen_kinesismod/protocol/usb_util.o
 .bss           0x0000000000000000        0x0 .build/obj_kinesis_nguyenvietyen_kinesismod/protocol/usb_util.o
 .text.usb_disconnect
                0x0000000000000000        0x2 .build/obj_kinesis_nguyenvietyen_kinesismod/protocol/usb_util.o
 .text.usb_connected_state
                0x0000000000000000        0x4 .build/obj_kinesis_nguyenvietyen_kinesismod/protocol/usb_util.o
 .text.usb_vbus_state
                0x0000000000000000        0x4 .build/obj_kinesis_nguyenvietyen_kinesismod/protocol/usb_util.o
 .debug_info    0x0000000000000000       0x9f .build/obj_kinesis_nguyenvietyen_kinesismod/protocol/usb_util.o
 .debug_abbrev  0x0000000000000000       0x67 .build/obj_kinesis_nguyenvietyen_kinesismod/protocol/usb_util.o
 .debug_aranges
                0x0000000000000000       0x28 .build/obj_kinesis_nguyenvietyen_kinesismod/protocol/usb_util.o
 .debug_ranges  0x0000000000000000       0x18 .build/obj_kinesis_nguyenvietyen_kinesismod/protocol/usb_util.o
 .debug_line    0x0000000000000000       0x60 .build/obj_kinesis_nguyenvietyen_kinesismod/protocol/usb_util.o
 .debug_str     0x0000000000000000      0x1d4 .build/obj_kinesis_nguyenvietyen_kinesismod/protocol/usb_util.o
 .comment       0x0000000000000000       0x12 .build/obj_kinesis_nguyenvietyen_kinesismod/protocol/usb_util.o
 .debug_frame   0x0000000000000000       0x44 .build/obj_kinesis_nguyenvietyen_kinesismod/protocol/usb_util.o
 .text          0x0000000000000000        0x0 .build/obj_kinesis_nguyenvietyen_kinesismod/platforms/suspend.o
 .data          0x0000000000000000        0x0 .build/obj_kinesis_nguyenvietyen_kinesismod/platforms/suspend.o
 .bss           0x0000000000000000        0x0 .build/obj_kinesis_nguyenvietyen_kinesismod/platforms/suspend.o
 .text          0x0000000000000000        0x0 .build/obj_kinesis_nguyenvietyen_kinesismod/platforms/synchronization_util.o
 .data          0x0000000000000000        0x0 .build/obj_kinesis_nguyenvietyen_kinesismod/platforms/synchronization_util.o
 .bss           0x0000000000000000        0x0 .build/obj_kinesis_nguyenvietyen_kinesismod/platforms/synchronization_util.o
 .debug_line    0x0000000000000000        0x0 .build/obj_kinesis_nguyenvietyen_kinesismod/platforms/synchronization_util.o
 .debug_str     0x0000000000000000      0x14d .build/obj_kinesis_nguyenvietyen_kinesismod/platforms/synchronization_util.o
 .comment       0x0000000000000000       0x12 .build/obj_kinesis_nguyenvietyen_kinesismod/platforms/synchronization_util.o
 .text          0x0000000000000000        0x0 .build/obj_kinesis_nguyenvietyen_kinesismod/platforms/timer.o
 .data          0x0000000000000000        0x0 .build/obj_kinesis_nguyenvietyen_kinesismod/platforms/timer.o
 .bss           0x0000000000000000        0x0 .build/obj_kinesis_nguyenvietyen_kinesismod/platforms/timer.o
 .text.timer_read_fast
                0x0000000000000000        0x6 .build/obj_kinesis_nguyenvietyen_kinesismod/platforms/timer.o
 .text.timer_elapsed_fast
                0x0000000000000000        0x6 .build/obj_kinesis_nguyenvietyen_kinesismod/platforms/timer.o
 .debug_info    0x0000000000000000       0xfe .build/obj_kinesis_nguyenvietyen_kinesismod/platforms/timer.o
 .debug_abbrev  0x0000000000000000       0x98 .build/obj_kinesis_nguyenvietyen_kinesismod/platforms/timer.o
 .debug_loc     0x0000000000000000       0x26 .build/obj_kinesis_nguyenvietyen_kinesismod/platforms/timer.o
 .debug_aranges
                0x0000000000000000       0x28 .build/obj_kinesis_nguyenvietyen_kinesismod/platforms/timer.o
 .debug_ranges  0x0000000000000000       0x18 .build/obj_kinesis_nguyenvietyen_kinesismod/platforms/timer.o
 .debug_line    0x0000000000000000       0x88 .build/obj_kinesis_nguyenvietyen_kinesismod/platforms/timer.o
 .debug_str     0x0000000000000000      0x1fc .build/obj_kinesis_nguyenvietyen_kinesismod/platforms/timer.o
 .comment       0x0000000000000000       0x12 .build/obj_kinesis_nguyenvietyen_kinesismod/platforms/timer.o
 .debug_frame   0x0000000000000000       0x34 .build/obj_kinesis_nguyenvietyen_kinesismod/platforms/timer.o
 .text          0x0000000000000000        0x0 .build/obj_kinesis_nguyenvietyen_kinesismod/platforms/avr/hardware_id.o
 .data          0x0000000000000000        0x0 .build/obj_kinesis_nguyenvietyen_kinesismod/platforms/avr/hardware_id.o
 .bss           0x0000000000000000        0x0 .build/obj_kinesis_nguyenvietyen_kinesismod/platforms/avr/hardware_id.o
 .text.get_hardware_id
                0x0000000000000000       0x4e .build/obj_kinesis_nguyenvietyen_kinesismod/platforms/avr/hardware_id.o
 .debug_info    0x0000000000000000      0x11d .build/obj_kinesis_nguyenvietyen_kinesismod/platforms/avr/hardware_id.o
 .debug_abbrev  0x0000000000000000       0xb9 .build/obj_kinesis_nguyenvietyen_kinesismod/platforms/avr/hardware_id.o
 .debug_loc     0x0000000000000000       0x5c .build/obj_kinesis_nguyenvietyen_kinesismod/platforms/avr/hardware_id.o
 .debug_aranges
                0x0000000000000000       0x20 .build/obj_kinesis_nguyenvietyen_kinesismod/platforms/avr/hardware_id.o
 .debug_ranges  0x0000000000000000       0x10 .build/obj_kinesis_nguyenvietyen_kinesismod/platforms/avr/hardware_id.o
 .debug_line    0x0000000000000000       0xb3 .build/obj_kinesis_nguyenvietyen_kinesismod/platforms/avr/hardware_id.o
 .debug_str     0x0000000000000000      0x20a .build/obj_kinesis_nguyenvietyen_kinesismod/platforms/avr/hardware_id.o
 .comment       0x0000000000000000       0x12 .build/obj_kinesis_nguyenvietyen_kinesismod/platforms/avr/hardware_id.o
 .debug_frame   0x0000000000000000       0x2c .build/obj_kinesis_nguyenvietyen_kinesismod/platforms/avr/hardware_id.o
 .text          0x0000000000000000        0x0 .build/obj_kinesis_nguyenvietyen_kinesismod/platforms/avr/platform.o
 .data          0x0000000000000000        0x0 .build/obj_kinesis_nguyenvietyen_kinesismod/platforms/avr/platform.o
 .bss           0x0000000000000000        0x0 .build/obj_kinesis_nguyenvietyen_kinesismod/platforms/avr/platform.o
 .text          0x0000000000000000        0x0 .build/obj_kinesis_nguyenvietyen_kinesismod/platforms/avr/suspend.o
 .data          0x0000000000000000        0x0 .build/obj_kinesis_nguyenvietyen_kinesismod/platforms/avr/suspend.o
 .bss           0x0000000000000000        0x0 .build/obj_kinesis_nguyenvietyen_kinesismod/platforms/avr/suspend.o
 .text          0x0000000000000000        0x0 .build/obj_kinesis_nguyenvietyen_kinesismod/platforms/avr/timer.o
 .data          0x0000000000000000        0x0 .build/obj_kinesis_nguyenvietyen_kinesismod/platforms/avr/timer.o
 .bss           0x0000000000000000        0x0 .build/obj_kinesis_nguyenvietyen_kinesismod/platforms/avr/timer.o
 .text.timer_clear
                0x0000000000000000       0x18 .build/obj_kinesis_nguyenvietyen_kinesismod/platforms/avr/timer.o
 .text.timer_elapsed32
                0x0000000000000000       0x38 .build/obj_kinesis_nguyenvietyen_kinesismod/platforms/avr/timer.o
 .text          0x0000000000000000        0x0 .build/obj_kinesis_nguyenvietyen_kinesismod/platforms/avr/bootloaders/caterina.o
 .data          0x0000000000000000        0x0 .build/obj_kinesis_nguyenvietyen_kinesismod/platforms/avr/bootloaders/caterina.o
 .bss           0x0000000000000000        0x0 .build/obj_kinesis_nguyenvietyen_kinesismod/platforms/avr/bootloaders/caterina.o
 .text          0x0000000000000000        0x0 .build/obj_kinesis_nguyenvietyen_kinesismod/lufa.o
 .data          0x0000000000000000        0x0 .build/obj_kinesis_nguyenvietyen_kinesismod/lufa.o
 .bss           0x0000000000000000        0x0 .build/obj_kinesis_nguyenvietyen_kinesismod/lufa.o
 .text.send_joystick
                0x0000000000000000        0x2 .build/obj_kinesis_nguyenvietyen_kinesismod/lufa.o
 .text.send_programmable_button
                0x0000000000000000        0x2 .build/obj_kinesis_nguyenvietyen_kinesismod/lufa.o
 .text.send_digitizer
                0x0000000000000000        0x2 .build/obj_kinesis_nguyenvietyen_kinesismod/lufa.o
 .text          0x0000000000000000        0x0 .build/obj_kinesis_nguyenvietyen_kinesismod/usb_descriptor.o
 .data          0x0000000000000000        0x0 .build/obj_kinesis_nguyenvietyen_kinesismod/usb_descriptor.o
 .bss           0x0000000000000000        0x0 .build/obj_kinesis_nguyenvietyen_kinesismod/usb_descriptor.o
 .text          0x0000000000000000        0x0 .build/obj_kinesis_nguyenvietyen_kinesismod/lib/lufa/LUFA/Drivers/USB/Class/Common/HIDParser.o
 .data          0x0000000000000000        0x0 .build/obj_kinesis_nguyenvietyen_kinesismod/lib/lufa/LUFA/Drivers/USB/Class/Common/HIDParser.o
 .bss           0x0000000000000000        0x0 .build/obj_kinesis_nguyenvietyen_kinesismod/lib/lufa/LUFA/Drivers/USB/Class/Common/HIDParser.o
 .text.USB_ProcessHIDReport
                0x0000000000000000      0x678 .build/obj_kinesis_nguyenvietyen_kinesismod/lib/lufa/LUFA/Drivers/USB/Class/Common/HIDParser.o
 .text.USB_GetHIDReportItemInfo
                0x0000000000000000       0xbc .build/obj_kinesis_nguyenvietyen_kinesismod/lib/lufa/LUFA/Drivers/USB/Class/Common/HIDParser.o
 .text.USB_SetHIDReportItemInfo
                0x0000000000000000       0xa6 .build/obj_kinesis_nguyenvietyen_kinesismod/lib/lufa/LUFA/Drivers/USB/Class/Common/HIDParser.o
 .text.USB_GetHIDReportSize
                0x0000000000000000       0x56 .build/obj_kinesis_nguyenvietyen_kinesismod/lib/lufa/LUFA/Drivers/USB/Class/Common/HIDParser.o
 .debug_info    0x0000000000000000      0x73f .build/obj_kinesis_nguyenvietyen_kinesismod/lib/lufa/LUFA/Drivers/USB/Class/Common/HIDParser.o
 .debug_abbrev  0x0000000000000000      0x21a .build/obj_kinesis_nguyenvietyen_kinesismod/lib/lufa/LUFA/Drivers/USB/Class/Common/HIDParser.o
 .debug_loc     0x0000000000000000      0x990 .build/obj_kinesis_nguyenvietyen_kinesismod/lib/lufa/LUFA/Drivers/USB/Class/Common/HIDParser.o
 .debug_aranges
                0x0000000000000000       0x38 .build/obj_kinesis_nguyenvietyen_kinesismod/lib/lufa/LUFA/Drivers/USB/Class/Common/HIDParser.o
 .debug_ranges  0x0000000000000000       0xd0 .build/obj_kinesis_nguyenvietyen_kinesismod/lib/lufa/LUFA/Drivers/USB/Class/Common/HIDParser.o
 .debug_line    0x0000000000000000      0x56f .build/obj_kinesis_nguyenvietyen_kinesismod/lib/lufa/LUFA/Drivers/USB/Class/Common/HIDParser.o
 .debug_str     0x0000000000000000      0x6f4 .build/obj_kinesis_nguyenvietyen_kinesismod/lib/lufa/LUFA/Drivers/USB/Class/Common/HIDParser.o
 .comment       0x0000000000000000       0x12 .build/obj_kinesis_nguyenvietyen_kinesismod/lib/lufa/LUFA/Drivers/USB/Class/Common/HIDParser.o
 .debug_frame   0x0000000000000000       0xc4 .build/obj_kinesis_nguyenvietyen_kinesismod/lib/lufa/LUFA/Drivers/USB/Class/Common/HIDParser.o
 .text          0x0000000000000000        0x0 .build/obj_kinesis_nguyenvietyen_kinesismod/lib/lufa/LUFA/Drivers/USB/Core/AVR8/Device_AVR8.o
 .data          0x0000000000000000        0x0 .build/obj_kinesis_nguyenvietyen_kinesismod/lib/lufa/LUFA/Drivers/USB/Core/AVR8/Device_AVR8.o
 .bss           0x0000000000000000        0x0 .build/obj_kinesis_nguyenvietyen_kinesismod/lib/lufa/LUFA/Drivers/USB/Core/AVR8/Device_AVR8.o
 .text          0x0000000000000000        0x0 .build/obj_kinesis_nguyenvietyen_kinesismod/lib/lufa/LUFA/Drivers/USB/Core/AVR8/EndpointStream_AVR8.o
 .data          0x0000000000000000        0x0 .build/obj_kinesis_nguyenvietyen_kinesismod/lib/lufa/LUFA/Drivers/USB/Core/AVR8/EndpointStream_AVR8.o
 .bss           0x0000000000000000        0x0 .build/obj_kinesis_nguyenvietyen_kinesismod/lib/lufa/LUFA/Drivers/USB/Core/AVR8/EndpointStream_AVR8.o
 .text.Endpoint_Discard_Stream
                0x0000000000000000       0x66 .build/obj_kinesis_nguyenvietyen_kinesismod/lib/lufa/LUFA/Drivers/USB/Core/AVR8/EndpointStream_AVR8.o
 .text.Endpoint_Null_Stream
                0x0000000000000000       0x66 .build/obj_kinesis_nguyenvietyen_kinesismod/lib/lufa/LUFA/Drivers/USB/Core/AVR8/EndpointStream_AVR8.o
 .text.Endpoint_Write_Stream_BE
                0x0000000000000000       0x94 .build/obj_kinesis_nguyenvietyen_kinesismod/lib/lufa/LUFA/Drivers/USB/Core/AVR8/EndpointStream_AVR8.o
 .text.Endpoint_Read_Stream_LE
                0x0000000000000000       0x8a .build/obj_kinesis_nguyenvietyen_kinesismod/lib/lufa/LUFA/Drivers/USB/Core/AVR8/EndpointStream_AVR8.o
 .text.Endpoint_Read_Stream_BE
                0x0000000000000000       0x94 .build/obj_kinesis_nguyenvietyen_kinesismod/lib/lufa/LUFA/Drivers/USB/Core/AVR8/EndpointStream_AVR8.o
 .text.Endpoint_Write_PStream_LE
                0x0000000000000000       0x8e .build/obj_kinesis_nguyenvietyen_kinesismod/lib/lufa/LUFA/Drivers/USB/Core/AVR8/EndpointStream_AVR8.o
 .text.Endpoint_Write_PStream_BE
                0x0000000000000000       0x96 .build/obj_kinesis_nguyenvietyen_kinesismod/lib/lufa/LUFA/Drivers/USB/Core/AVR8/EndpointStream_AVR8.o
 .text.Endpoint_Write_EStream_LE
                0x0000000000000000       0x90 .build/obj_kinesis_nguyenvietyen_kinesismod/lib/lufa/LUFA/Drivers/USB/Core/AVR8/EndpointStream_AVR8.o
 .text.Endpoint_Write_EStream_BE
                0x0000000000000000       0x98 .build/obj_kinesis_nguyenvietyen_kinesismod/lib/lufa/LUFA/Drivers/USB/Core/AVR8/EndpointStream_AVR8.o
 .text.Endpoint_Read_EStream_LE
                0x0000000000000000       0x90 .build/obj_kinesis_nguyenvietyen_kinesismod/lib/lufa/LUFA/Drivers/USB/Core/AVR8/EndpointStream_AVR8.o
 .text.Endpoint_Read_EStream_BE
                0x0000000000000000       0x98 .build/obj_kinesis_nguyenvietyen_kinesismod/lib/lufa/LUFA/Drivers/USB/Core/AVR8/EndpointStream_AVR8.o
 .text.Endpoint_Write_Control_Stream_BE
                0x0000000000000000       0xd0 .build/obj_kinesis_nguyenvietyen_kinesismod/lib/lufa/LUFA/Drivers/USB/Core/AVR8/EndpointStream_AVR8.o
 .text.Endpoint_Read_Control_Stream_LE
                0x0000000000000000       0x80 .build/obj_kinesis_nguyenvietyen_kinesismod/lib/lufa/LUFA/Drivers/USB/Core/AVR8/EndpointStream_AVR8.o
 .text.Endpoint_Read_Control_Stream_BE
                0x0000000000000000       0x82 .build/obj_kinesis_nguyenvietyen_kinesismod/lib/lufa/LUFA/Drivers/USB/Core/AVR8/EndpointStream_AVR8.o
 .text.Endpoint_Write_Control_PStream_BE
                0x0000000000000000       0xce .build/obj_kinesis_nguyenvietyen_kinesismod/lib/lufa/LUFA/Drivers/USB/Core/AVR8/EndpointStream_AVR8.o
 .text.Endpoint_Write_Control_EStream_LE
                0x0000000000000000       0xe8 .build/obj_kinesis_nguyenvietyen_kinesismod/lib/lufa/LUFA/Drivers/USB/Core/AVR8/EndpointStream_AVR8.o
 .text.Endpoint_Write_Control_EStream_BE
                0x0000000000000000       0xf4 .build/obj_kinesis_nguyenvietyen_kinesismod/lib/lufa/LUFA/Drivers/USB/Core/AVR8/EndpointStream_AVR8.o
 .text.Endpoint_Read_Control_EStream_LE
                0x0000000000000000       0x94 .build/obj_kinesis_nguyenvietyen_kinesismod/lib/lufa/LUFA/Drivers/USB/Core/AVR8/EndpointStream_AVR8.o
 .text.Endpoint_Read_Control_EStream_BE
                0x0000000000000000       0x92 .build/obj_kinesis_nguyenvietyen_kinesismod/lib/lufa/LUFA/Drivers/USB/Core/AVR8/EndpointStream_AVR8.o
 .text          0x0000000000000000        0x0 .build/obj_kinesis_nguyenvietyen_kinesismod/lib/lufa/LUFA/Drivers/USB/Core/AVR8/Endpoint_AVR8.o
 .data          0x0000000000000000        0x0 .build/obj_kinesis_nguyenvietyen_kinesismod/lib/lufa/LUFA/Drivers/USB/Core/AVR8/Endpoint_AVR8.o
 .bss           0x0000000000000000        0x0 .build/obj_kinesis_nguyenvietyen_kinesismod/lib/lufa/LUFA/Drivers/USB/Core/AVR8/Endpoint_AVR8.o
 .text.Endpoint_ConfigureEndpointTable
                0x0000000000000000       0x7c .build/obj_kinesis_nguyenvietyen_kinesismod/lib/lufa/LUFA/Drivers/USB/Core/AVR8/Endpoint_AVR8.o
 .text.Endpoint_ClearEndpoints
                0x0000000000000000       0x28 .build/obj_kinesis_nguyenvietyen_kinesismod/lib/lufa/LUFA/Drivers/USB/Core/AVR8/Endpoint_AVR8.o
 .text          0x0000000000000000        0x0 .build/obj_kinesis_nguyenvietyen_kinesismod/lib/lufa/LUFA/Drivers/USB/Core/AVR8/Host_AVR8.o
 .data          0x0000000000000000        0x0 .build/obj_kinesis_nguyenvietyen_kinesismod/lib/lufa/LUFA/Drivers/USB/Core/AVR8/Host_AVR8.o
 .bss           0x0000000000000000        0x0 .build/obj_kinesis_nguyenvietyen_kinesismod/lib/lufa/LUFA/Drivers/USB/Core/AVR8/Host_AVR8.o
 .debug_info    0x0000000000000000       0x5d .build/obj_kinesis_nguyenvietyen_kinesismod/lib/lufa/LUFA/Drivers/USB/Core/AVR8/Host_AVR8.o
 .debug_abbrev  0x0000000000000000       0x26 .build/obj_kinesis_nguyenvietyen_kinesismod/lib/lufa/LUFA/Drivers/USB/Core/AVR8/Host_AVR8.o
 .debug_aranges
                0x0000000000000000       0x18 .build/obj_kinesis_nguyenvietyen_kinesismod/lib/lufa/LUFA/Drivers/USB/Core/AVR8/Host_AVR8.o
 .debug_line    0x0000000000000000       0x1a .build/obj_kinesis_nguyenvietyen_kinesismod/lib/lufa/LUFA/Drivers/USB/Core/AVR8/Host_AVR8.o
 .debug_str     0x0000000000000000      0x1cf .build/obj_kinesis_nguyenvietyen_kinesismod/lib/lufa/LUFA/Drivers/USB/Core/AVR8/Host_AVR8.o
 .comment       0x0000000000000000       0x12 .build/obj_kinesis_nguyenvietyen_kinesismod/lib/lufa/LUFA/Drivers/USB/Core/AVR8/Host_AVR8.o
 .text          0x0000000000000000        0x0 .build/obj_kinesis_nguyenvietyen_kinesismod/lib/lufa/LUFA/Drivers/USB/Core/AVR8/PipeStream_AVR8.o
 .data          0x0000000000000000        0x0 .build/obj_kinesis_nguyenvietyen_kinesismod/lib/lufa/LUFA/Drivers/USB/Core/AVR8/PipeStream_AVR8.o
 .bss           0x0000000000000000        0x0 .build/obj_kinesis_nguyenvietyen_kinesismod/lib/lufa/LUFA/Drivers/USB/Core/AVR8/PipeStream_AVR8.o
 .debug_info    0x0000000000000000       0x5d .build/obj_kinesis_nguyenvietyen_kinesismod/lib/lufa/LUFA/Drivers/USB/Core/AVR8/PipeStream_AVR8.o
 .debug_abbrev  0x0000000000000000       0x26 .build/obj_kinesis_nguyenvietyen_kinesismod/lib/lufa/LUFA/Drivers/USB/Core/AVR8/PipeStream_AVR8.o
 .debug_aranges
                0x0000000000000000       0x18 .build/obj_kinesis_nguyenvietyen_kinesismod/lib/lufa/LUFA/Drivers/USB/Core/AVR8/PipeStream_AVR8.o
 .debug_line    0x0000000000000000       0x1a .build/obj_kinesis_nguyenvietyen_kinesismod/lib/lufa/LUFA/Drivers/USB/Core/AVR8/PipeStream_AVR8.o
 .debug_str     0x0000000000000000      0x1d5 .build/obj_kinesis_nguyenvietyen_kinesismod/lib/lufa/LUFA/Drivers/USB/Core/AVR8/PipeStream_AVR8.o
 .comment       0x0000000000000000       0x12 .build/obj_kinesis_nguyenvietyen_kinesismod/lib/lufa/LUFA/Drivers/USB/Core/AVR8/PipeStream_AVR8.o
 .text          0x0000000000000000        0x0 .build/obj_kinesis_nguyenvietyen_kinesismod/lib/lufa/LUFA/Drivers/USB/Core/AVR8/Pipe_AVR8.o
 .data          0x0000000000000000        0x0 .build/obj_kinesis_nguyenvietyen_kinesismod/lib/lufa/LUFA/Drivers/USB/Core/AVR8/Pipe_AVR8.o
 .bss           0x0000000000000000        0x0 .build/obj_kinesis_nguyenvietyen_kinesismod/lib/lufa/LUFA/Drivers/USB/Core/AVR8/Pipe_AVR8.o
 .debug_info    0x0000000000000000       0x5d .build/obj_kinesis_nguyenvietyen_kinesismod/lib/lufa/LUFA/Drivers/USB/Core/AVR8/Pipe_AVR8.o
 .debug_abbrev  0x0000000000000000       0x26 .build/obj_kinesis_nguyenvietyen_kinesismod/lib/lufa/LUFA/Drivers/USB/Core/AVR8/Pipe_AVR8.o
 .debug_aranges
                0x0000000000000000       0x18 .build/obj_kinesis_nguyenvietyen_kinesismod/lib/lufa/LUFA/Drivers/USB/Core/AVR8/Pipe_AVR8.o
 .debug_line    0x0000000000000000       0x1a .build/obj_kinesis_nguyenvietyen_kinesismod/lib/lufa/LUFA/Drivers/USB/Core/AVR8/Pipe_AVR8.o
 .debug_str     0x0000000000000000      0x1cf .build/obj_kinesis_nguyenvietyen_kinesismod/lib/lufa/LUFA/Drivers/USB/Core/AVR8/Pipe_AVR8.o
 .comment       0x0000000000000000       0x12 .build/obj_kinesis_nguyenvietyen_kinesismod/lib/lufa/LUFA/Drivers/USB/Core/AVR8/Pipe_AVR8.o
 .text          0x0000000000000000        0x0 .build/obj_kinesis_nguyenvietyen_kinesismod/lib/lufa/LUFA/Drivers/USB/Core/AVR8/USBController_AVR8.o
 .data          0x0000000000000000        0x0 .build/obj_kinesis_nguyenvietyen_kinesismod/lib/lufa/LUFA/Drivers/USB/Core/AVR8/USBController_AVR8.o
 .bss           0x0000000000000000        0x0 .build/obj_kinesis_nguyenvietyen_kinesismod/lib/lufa/LUFA/Drivers/USB/Core/AVR8/USBController_AVR8.o
 .text          0x0000000000000000        0x0 .build/obj_kinesis_nguyenvietyen_kinesismod/lib/lufa/LUFA/Drivers/USB/Core/AVR8/USBInterrupt_AVR8.o
 .data          0x0000000000000000        0x0 .build/obj_kinesis_nguyenvietyen_kinesismod/lib/lufa/LUFA/Drivers/USB/Core/AVR8/USBInterrupt_AVR8.o
 .bss           0x0000000000000000        0x0 .build/obj_kinesis_nguyenvietyen_kinesismod/lib/lufa/LUFA/Drivers/USB/Core/AVR8/USBInterrupt_AVR8.o
 .text          0x0000000000000000        0x0 .build/obj_kinesis_nguyenvietyen_kinesismod/lib/lufa/LUFA/Drivers/USB/Core/ConfigDescriptors.o
 .data          0x0000000000000000        0x0 .build/obj_kinesis_nguyenvietyen_kinesismod/lib/lufa/LUFA/Drivers/USB/Core/ConfigDescriptors.o
 .bss           0x0000000000000000        0x0 .build/obj_kinesis_nguyenvietyen_kinesismod/lib/lufa/LUFA/Drivers/USB/Core/ConfigDescriptors.o
 .text.USB_GetNextDescriptor
                0x0000000000000000       0x3c .build/obj_kinesis_nguyenvietyen_kinesismod/lib/lufa/LUFA/Drivers/USB/Core/ConfigDescriptors.o
 .text.USB_GetNextDescriptorOfType
                0x0000000000000000       0x36 .build/obj_kinesis_nguyenvietyen_kinesismod/lib/lufa/LUFA/Drivers/USB/Core/ConfigDescriptors.o
 .text.USB_GetNextDescriptorOfTypeBefore
                0x0000000000000000       0x42 .build/obj_kinesis_nguyenvietyen_kinesismod/lib/lufa/LUFA/Drivers/USB/Core/ConfigDescriptors.o
 .text.USB_GetNextDescriptorOfTypeAfter
                0x0000000000000000       0x32 .build/obj_kinesis_nguyenvietyen_kinesismod/lib/lufa/LUFA/Drivers/USB/Core/ConfigDescriptors.o
 .text.USB_GetNextDescriptorComp
                0x0000000000000000       0x52 .build/obj_kinesis_nguyenvietyen_kinesismod/lib/lufa/LUFA/Drivers/USB/Core/ConfigDescriptors.o
 .debug_info    0x0000000000000000      0x3d8 .build/obj_kinesis_nguyenvietyen_kinesismod/lib/lufa/LUFA/Drivers/USB/Core/ConfigDescriptors.o
 .debug_abbrev  0x0000000000000000      0x177 .build/obj_kinesis_nguyenvietyen_kinesismod/lib/lufa/LUFA/Drivers/USB/Core/ConfigDescriptors.o
 .debug_loc     0x0000000000000000      0x42c .build/obj_kinesis_nguyenvietyen_kinesismod/lib/lufa/LUFA/Drivers/USB/Core/ConfigDescriptors.o
 .debug_aranges
                0x0000000000000000       0x40 .build/obj_kinesis_nguyenvietyen_kinesismod/lib/lufa/LUFA/Drivers/USB/Core/ConfigDescriptors.o
 .debug_ranges  0x0000000000000000       0x30 .build/obj_kinesis_nguyenvietyen_kinesismod/lib/lufa/LUFA/Drivers/USB/Core/ConfigDescriptors.o
 .debug_line    0x0000000000000000      0x1c8 .build/obj_kinesis_nguyenvietyen_kinesismod/lib/lufa/LUFA/Drivers/USB/Core/ConfigDescriptors.o
 .debug_str     0x0000000000000000      0x418 .build/obj_kinesis_nguyenvietyen_kinesismod/lib/lufa/LUFA/Drivers/USB/Core/ConfigDescriptors.o
 .comment       0x0000000000000000       0x12 .build/obj_kinesis_nguyenvietyen_kinesismod/lib/lufa/LUFA/Drivers/USB/Core/ConfigDescriptors.o
 .debug_frame   0x0000000000000000       0xe0 .build/obj_kinesis_nguyenvietyen_kinesismod/lib/lufa/LUFA/Drivers/USB/Core/ConfigDescriptors.o
 .text          0x0000000000000000        0x0 .build/obj_kinesis_nguyenvietyen_kinesismod/lib/lufa/LUFA/Drivers/USB/Core/DeviceStandardReq.o
 .data          0x0000000000000000        0x0 .build/obj_kinesis_nguyenvietyen_kinesismod/lib/lufa/LUFA/Drivers/USB/Core/DeviceStandardReq.o
 .bss           0x0000000000000000        0x0 .build/obj_kinesis_nguyenvietyen_kinesismod/lib/lufa/LUFA/Drivers/USB/Core/DeviceStandardReq.o
 .text          0x0000000000000000        0x0 .build/obj_kinesis_nguyenvietyen_kinesismod/lib/lufa/LUFA/Drivers/USB/Core/Events.o
 .data          0x0000000000000000        0x0 .build/obj_kinesis_nguyenvietyen_kinesismod/lib/lufa/LUFA/Drivers/USB/Core/Events.o
 .bss           0x0000000000000000        0x0 .build/obj_kinesis_nguyenvietyen_kinesismod/lib/lufa/LUFA/Drivers/USB/Core/Events.o
 .text.USB_Event_Stub_2
                0x0000000000000000        0x2 .build/obj_kinesis_nguyenvietyen_kinesismod/lib/lufa/LUFA/Drivers/USB/Core/Events.o
 .text.USB_Event_Stub_3
                0x0000000000000000        0x2 .build/obj_kinesis_nguyenvietyen_kinesismod/lib/lufa/LUFA/Drivers/USB/Core/Events.o
 .text          0x0000000000000000        0x0 .build/obj_kinesis_nguyenvietyen_kinesismod/lib/lufa/LUFA/Drivers/USB/Core/HostStandardReq.o
 .data          0x0000000000000000        0x0 .build/obj_kinesis_nguyenvietyen_kinesismod/lib/lufa/LUFA/Drivers/USB/Core/HostStandardReq.o
 .bss           0x0000000000000000        0x0 .build/obj_kinesis_nguyenvietyen_kinesismod/lib/lufa/LUFA/Drivers/USB/Core/HostStandardReq.o
 .debug_info    0x0000000000000000       0x5d .build/obj_kinesis_nguyenvietyen_kinesismod/lib/lufa/LUFA/Drivers/USB/Core/HostStandardReq.o
 .debug_abbrev  0x0000000000000000       0x26 .build/obj_kinesis_nguyenvietyen_kinesismod/lib/lufa/LUFA/Drivers/USB/Core/HostStandardReq.o
 .debug_aranges
                0x0000000000000000       0x18 .build/obj_kinesis_nguyenvietyen_kinesismod/lib/lufa/LUFA/Drivers/USB/Core/HostStandardReq.o
 .debug_line    0x0000000000000000       0x1a .build/obj_kinesis_nguyenvietyen_kinesismod/lib/lufa/LUFA/Drivers/USB/Core/HostStandardReq.o
 .debug_str     0x0000000000000000      0x1d0 .build/obj_kinesis_nguyenvietyen_kinesismod/lib/lufa/LUFA/Drivers/USB/Core/HostStandardReq.o
 .comment       0x0000000000000000       0x12 .build/obj_kinesis_nguyenvietyen_kinesismod/lib/lufa/LUFA/Drivers/USB/Core/HostStandardReq.o
 .text          0x0000000000000000        0x0 .build/obj_kinesis_nguyenvietyen_kinesismod/lib/lufa/LUFA/Drivers/USB/Core/USBTask.o
 .data          0x0000000000000000        0x0 .build/obj_kinesis_nguyenvietyen_kinesismod/lib/lufa/LUFA/Drivers/USB/Core/USBTask.o
 .bss           0x0000000000000000        0x0 .build/obj_kinesis_nguyenvietyen_kinesismod/lib/lufa/LUFA/Drivers/USB/Core/USBTask.o
 .text          0x0000000000000000        0x0 .build/obj_kinesis_nguyenvietyen_kinesismod/protocol/lufa/usb_util.o
 .data          0x0000000000000000        0x0 .build/obj_kinesis_nguyenvietyen_kinesismod/protocol/lufa/usb_util.o
 .bss           0x0000000000000000        0x0 .build/obj_kinesis_nguyenvietyen_kinesismod/protocol/lufa/usb_util.o
 .text.usb_disconnect
                0x0000000000000000        0xa .build/obj_kinesis_nguyenvietyen_kinesismod/protocol/lufa/usb_util.o
 .text.usb_connected_state
                0x0000000000000000        0xc .build/obj_kinesis_nguyenvietyen_kinesismod/protocol/lufa/usb_util.o
 .text.usb_vbus_state
                0x0000000000000000       0x1a .build/obj_kinesis_nguyenvietyen_kinesismod/protocol/lufa/usb_util.o
 .debug_info    0x0000000000000000      0x218 .build/obj_kinesis_nguyenvietyen_kinesismod/protocol/lufa/usb_util.o
 .debug_abbrev  0x0000000000000000      0x155 .build/obj_kinesis_nguyenvietyen_kinesismod/protocol/lufa/usb_util.o
 .debug_loc     0x0000000000000000       0x45 .build/obj_kinesis_nguyenvietyen_kinesismod/protocol/lufa/usb_util.o
 .debug_aranges
                0x0000000000000000       0x30 .build/obj_kinesis_nguyenvietyen_kinesismod/protocol/lufa/usb_util.o
 .debug_ranges  0x0000000000000000       0x20 .build/obj_kinesis_nguyenvietyen_kinesismod/protocol/lufa/usb_util.o
 .debug_line    0x0000000000000000      0x1cf .build/obj_kinesis_nguyenvietyen_kinesismod/protocol/lufa/usb_util.o
 .debug_str     0x0000000000000000      0x34b .build/obj_kinesis_nguyenvietyen_kinesismod/protocol/lufa/usb_util.o
 .comment       0x0000000000000000       0x12 .build/obj_kinesis_nguyenvietyen_kinesismod/protocol/lufa/usb_util.o
 .debug_frame   0x0000000000000000       0x44 .build/obj_kinesis_nguyenvietyen_kinesismod/protocol/lufa/usb_util.o
 .text          0x0000000000000000        0x0 /usr/lib/gcc/avr/5.4.0/avr5/libgcc.a(_divmodhi4.o)
 .data          0x0000000000000000        0x0 /usr/lib/gcc/avr/5.4.0/avr5/libgcc.a(_divmodhi4.o)
 .bss           0x0000000000000000        0x0 /usr/lib/gcc/avr/5.4.0/avr5/libgcc.a(_divmodhi4.o)
 .text.libgcc.mul
                0x0000000000000000        0x0 /usr/lib/gcc/avr/5.4.0/avr5/libgcc.a(_divmodhi4.o)
 .text.libgcc   0x0000000000000000        0x0 /usr/lib/gcc/avr/5.4.0/avr5/libgcc.a(_divmodhi4.o)
 .text.libgcc.prologue
                0x0000000000000000        0x0 /usr/lib/gcc/avr/5.4.0/avr5/libgcc.a(_divmodhi4.o)
 .text.libgcc.builtins
                0x0000000000000000        0x0 /usr/lib/gcc/avr/5.4.0/avr5/libgcc.a(_divmodhi4.o)
 .text.libgcc.fmul
                0x0000000000000000        0x0 /usr/lib/gcc/avr/5.4.0/avr5/libgcc.a(_divmodhi4.o)
 .text.libgcc.fixed
                0x0000000000000000        0x0 /usr/lib/gcc/avr/5.4.0/avr5/libgcc.a(_divmodhi4.o)
 .text          0x0000000000000000        0x0 /usr/lib/gcc/avr/5.4.0/avr5/libgcc.a(_udivmodsi4.o)
 .data          0x0000000000000000        0x0 /usr/lib/gcc/avr/5.4.0/avr5/libgcc.a(_udivmodsi4.o)
 .bss           0x0000000000000000        0x0 /usr/lib/gcc/avr/5.4.0/avr5/libgcc.a(_udivmodsi4.o)
 .text.libgcc.mul
                0x0000000000000000        0x0 /usr/lib/gcc/avr/5.4.0/avr5/libgcc.a(_udivmodsi4.o)
 .text.libgcc.div
                0x0000000000000000       0x44 /usr/lib/gcc/avr/5.4.0/avr5/libgcc.a(_udivmodsi4.o)
 .text.libgcc   0x0000000000000000        0x0 /usr/lib/gcc/avr/5.4.0/avr5/libgcc.a(_udivmodsi4.o)
 .text.libgcc.prologue
                0x0000000000000000        0x0 /usr/lib/gcc/avr/5.4.0/avr5/libgcc.a(_udivmodsi4.o)
 .text.libgcc.builtins
                0x0000000000000000        0x0 /usr/lib/gcc/avr/5.4.0/avr5/libgcc.a(_udivmodsi4.o)
 .text.libgcc.fmul
                0x0000000000000000        0x0 /usr/lib/gcc/avr/5.4.0/avr5/libgcc.a(_udivmodsi4.o)
 .text.libgcc.fixed
                0x0000000000000000        0x0 /usr/lib/gcc/avr/5.4.0/avr5/libgcc.a(_udivmodsi4.o)
 .text          0x0000000000000000        0x0 /usr/lib/gcc/avr/5.4.0/avr5/libgcc.a(_exit.o)
 .data          0x0000000000000000        0x0 /usr/lib/gcc/avr/5.4.0/avr5/libgcc.a(_exit.o)
 .bss           0x0000000000000000        0x0 /usr/lib/gcc/avr/5.4.0/avr5/libgcc.a(_exit.o)
 .text.libgcc.mul
                0x0000000000000000        0x0 /usr/lib/gcc/avr/5.4.0/avr5/libgcc.a(_exit.o)
 .text.libgcc.div
                0x0000000000000000        0x0 /usr/lib/gcc/avr/5.4.0/avr5/libgcc.a(_exit.o)
 .text.libgcc   0x0000000000000000        0x0 /usr/lib/gcc/avr/5.4.0/avr5/libgcc.a(_exit.o)
 .text.libgcc.prologue
                0x0000000000000000        0x0 /usr/lib/gcc/avr/5.4.0/avr5/libgcc.a(_exit.o)
 .text.libgcc.builtins
                0x0000000000000000        0x0 /usr/lib/gcc/avr/5.4.0/avr5/libgcc.a(_exit.o)
 .text.libgcc.fmul
                0x0000000000000000        0x0 /usr/lib/gcc/avr/5.4.0/avr5/libgcc.a(_exit.o)
 .text.libgcc.fixed
                0x0000000000000000        0x0 /usr/lib/gcc/avr/5.4.0/avr5/libgcc.a(_exit.o)
 .text          0x0000000000000000        0x0 /usr/lib/gcc/avr/5.4.0/avr5/libgcc.a(_tablejump2.o)
 .data          0x0000000000000000        0x0 /usr/lib/gcc/avr/5.4.0/avr5/libgcc.a(_tablejump2.o)
 .bss           0x0000000000000000        0x0 /usr/lib/gcc/avr/5.4.0/avr5/libgcc.a(_tablejump2.o)
 .text.libgcc.mul
                0x0000000000000000        0x0 /usr/lib/gcc/avr/5.4.0/avr5/libgcc.a(_tablejump2.o)
 .text.libgcc.div
                0x0000000000000000        0x0 /usr/lib/gcc/avr/5.4.0/avr5/libgcc.a(_tablejump2.o)
 .text.libgcc.prologue
                0x0000000000000000        0x0 /usr/lib/gcc/avr/5.4.0/avr5/libgcc.a(_tablejump2.o)
 .text.libgcc.builtins
                0x0000000000000000        0x0 /usr/lib/gcc/avr/5.4.0/avr5/libgcc.a(_tablejump2.o)
 .text.libgcc.fmul
                0x0000000000000000        0x0 /usr/lib/gcc/avr/5.4.0/avr5/libgcc.a(_tablejump2.o)
 .text.libgcc.fixed
                0x0000000000000000        0x0 /usr/lib/gcc/avr/5.4.0/avr5/libgcc.a(_tablejump2.o)
 .text          0x0000000000000000        0x0 /usr/lib/gcc/avr/5.4.0/avr5/libgcc.a(_copy_data.o)
 .data          0x0000000000000000        0x0 /usr/lib/gcc/avr/5.4.0/avr5/libgcc.a(_copy_data.o)
 .bss           0x0000000000000000        0x0 /usr/lib/gcc/avr/5.4.0/avr5/libgcc.a(_copy_data.o)
 .text.libgcc.mul
                0x0000000000000000        0x0 /usr/lib/gcc/avr/5.4.0/avr5/libgcc.a(_copy_data.o)
 .text.libgcc.div
                0x0000000000000000        0x0 /usr/lib/gcc/avr/5.4.0/avr5/libgcc.a(_copy_data.o)
 .text.libgcc   0x0000000000000000        0x0 /usr/lib/gcc/avr/5.4.0/avr5/libgcc.a(_copy_data.o)
 .text.libgcc.prologue
                0x0000000000000000        0x0 /usr/lib/gcc/avr/5.4.0/avr5/libgcc.a(_copy_data.o)
 .text.libgcc.builtins
                0x0000000000000000        0x0 /usr/lib/gcc/avr/5.4.0/avr5/libgcc.a(_copy_data.o)
 .text.libgcc.fmul
                0x0000000000000000        0x0 /usr/lib/gcc/avr/5.4.0/avr5/libgcc.a(_copy_data.o)
 .text.libgcc.fixed
                0x0000000000000000        0x0 /usr/lib/gcc/avr/5.4.0/avr5/libgcc.a(_copy_data.o)
 .text          0x0000000000000000        0x0 /usr/lib/gcc/avr/5.4.0/avr5/libgcc.a(_clear_bss.o)
 .data          0x0000000000000000        0x0 /usr/lib/gcc/avr/5.4.0/avr5/libgcc.a(_clear_bss.o)
 .bss           0x0000000000000000        0x0 /usr/lib/gcc/avr/5.4.0/avr5/libgcc.a(_clear_bss.o)
 .text.libgcc.mul
                0x0000000000000000        0x0 /usr/lib/gcc/avr/5.4.0/avr5/libgcc.a(_clear_bss.o)
 .text.libgcc.div
                0x0000000000000000        0x0 /usr/lib/gcc/avr/5.4.0/avr5/libgcc.a(_clear_bss.o)
 .text.libgcc   0x0000000000000000        0x0 /usr/lib/gcc/avr/5.4.0/avr5/libgcc.a(_clear_bss.o)
 .text.libgcc.prologue
                0x0000000000000000        0x0 /usr/lib/gcc/avr/5.4.0/avr5/libgcc.a(_clear_bss.o)
 .text.libgcc.builtins
                0x0000000000000000        0x0 /usr/lib/gcc/avr/5.4.0/avr5/libgcc.a(_clear_bss.o)
 .text.libgcc.fmul
                0x0000000000000000        0x0 /usr/lib/gcc/avr/5.4.0/avr5/libgcc.a(_clear_bss.o)
 .text.libgcc.fixed
                0x0000000000000000        0x0 /usr/lib/gcc/avr/5.4.0/avr5/libgcc.a(_clear_bss.o)
 .text          0x0000000000000000        0x0 /usr/lib/gcc/avr/5.4.0/avr5/libgcc.a(_prologue.o)
 .data          0x0000000000000000        0x0 /usr/lib/gcc/avr/5.4.0/avr5/libgcc.a(_prologue.o)
 .bss           0x0000000000000000        0x0 /usr/lib/gcc/avr/5.4.0/avr5/libgcc.a(_prologue.o)
 .text.libgcc.mul
                0x0000000000000000        0x0 /usr/lib/gcc/avr/5.4.0/avr5/libgcc.a(_prologue.o)
 .text.libgcc.div
                0x0000000000000000        0x0 /usr/lib/gcc/avr/5.4.0/avr5/libgcc.a(_prologue.o)
 .text.libgcc   0x0000000000000000        0x0 /usr/lib/gcc/avr/5.4.0/avr5/libgcc.a(_prologue.o)
 .text.libgcc.builtins
                0x0000000000000000        0x0 /usr/lib/gcc/avr/5.4.0/avr5/libgcc.a(_prologue.o)
 .text.libgcc.fmul
                0x0000000000000000        0x0 /usr/lib/gcc/avr/5.4.0/avr5/libgcc.a(_prologue.o)
 .text.libgcc.fixed
                0x0000000000000000        0x0 /usr/lib/gcc/avr/5.4.0/avr5/libgcc.a(_prologue.o)
 .text          0x0000000000000000        0x0 /usr/lib/gcc/avr/5.4.0/avr5/libgcc.a(_epilogue.o)
 .data          0x0000000000000000        0x0 /usr/lib/gcc/avr/5.4.0/avr5/libgcc.a(_epilogue.o)
 .bss           0x0000000000000000        0x0 /usr/lib/gcc/avr/5.4.0/avr5/libgcc.a(_epilogue.o)
 .text.libgcc.mul
                0x0000000000000000        0x0 /usr/lib/gcc/avr/5.4.0/avr5/libgcc.a(_epilogue.o)
 .text.libgcc.div
                0x0000000000000000        0x0 /usr/lib/gcc/avr/5.4.0/avr5/libgcc.a(_epilogue.o)
 .text.libgcc   0x0000000000000000        0x0 /usr/lib/gcc/avr/5.4.0/avr5/libgcc.a(_epilogue.o)
 .text.libgcc.builtins
                0x0000000000000000        0x0 /usr/lib/gcc/avr/5.4.0/avr5/libgcc.a(_epilogue.o)
 .text.libgcc.fmul
                0x0000000000000000        0x0 /usr/lib/gcc/avr/5.4.0/avr5/libgcc.a(_epilogue.o)
 .text.libgcc.fixed
                0x0000000000000000        0x0 /usr/lib/gcc/avr/5.4.0/avr5/libgcc.a(_epilogue.o)
 .text          0x0000000000000000        0x0 /usr/lib/gcc/avr/5.4.0/avr5/libgcc.a(_udivmodhi4.o)
 .data          0x0000000000000000        0x0 /usr/lib/gcc/avr/5.4.0/avr5/libgcc.a(_udivmodhi4.o)
 .bss           0x0000000000000000        0x0 /usr/lib/gcc/avr/5.4.0/avr5/libgcc.a(_udivmodhi4.o)
 .text.libgcc.mul
                0x0000000000000000        0x0 /usr/lib/gcc/avr/5.4.0/avr5/libgcc.a(_udivmodhi4.o)
 .text.libgcc   0x0000000000000000        0x0 /usr/lib/gcc/avr/5.4.0/avr5/libgcc.a(_udivmodhi4.o)
 .text.libgcc.prologue
                0x0000000000000000        0x0 /usr/lib/gcc/avr/5.4.0/avr5/libgcc.a(_udivmodhi4.o)
 .text.libgcc.builtins
                0x0000000000000000        0x0 /usr/lib/gcc/avr/5.4.0/avr5/libgcc.a(_udivmodhi4.o)
 .text.libgcc.fmul
                0x0000000000000000        0x0 /usr/lib/gcc/avr/5.4.0/avr5/libgcc.a(_udivmodhi4.o)
 .text.libgcc.fixed
                0x0000000000000000        0x0 /usr/lib/gcc/avr/5.4.0/avr5/libgcc.a(_udivmodhi4.o)
 .text          0x0000000000000000        0x0 /usr/lib/gcc/avr/5.4.0/../../../avr/lib/avr5/libc.a(memcmp.o)
 .data          0x0000000000000000        0x0 /usr/lib/gcc/avr/5.4.0/../../../avr/lib/avr5/libc.a(memcmp.o)
 .bss           0x0000000000000000        0x0 /usr/lib/gcc/avr/5.4.0/../../../avr/lib/avr5/libc.a(memcmp.o)
 .text          0x0000000000000000        0x0 /usr/lib/gcc/avr/5.4.0/../../../avr/lib/avr5/libc.a(memcpy.o)
 .data          0x0000000000000000        0x0 /usr/lib/gcc/avr/5.4.0/../../../avr/lib/avr5/libc.a(memcpy.o)
 .bss           0x0000000000000000        0x0 /usr/lib/gcc/avr/5.4.0/../../../avr/lib/avr5/libc.a(memcpy.o)
 .text          0x0000000000000000        0x0 /usr/lib/gcc/avr/5.4.0/../../../avr/lib/avr5/libatmega32u4.a(eerd_byte.o)
 .data          0x0000000000000000        0x0 /usr/lib/gcc/avr/5.4.0/../../../avr/lib/avr5/libatmega32u4.a(eerd_byte.o)
 .bss           0x0000000000000000        0x0 /usr/lib/gcc/avr/5.4.0/../../../avr/lib/avr5/libatmega32u4.a(eerd_byte.o)
 .text          0x0000000000000000        0x0 /usr/lib/gcc/avr/5.4.0/../../../avr/lib/avr5/libatmega32u4.a(eerd_dword.o)
 .data          0x0000000000000000        0x0 /usr/lib/gcc/avr/5.4.0/../../../avr/lib/avr5/libatmega32u4.a(eerd_dword.o)
 .bss           0x0000000000000000        0x0 /usr/lib/gcc/avr/5.4.0/../../../avr/lib/avr5/libatmega32u4.a(eerd_dword.o)
 .text.avr-libc
                0x0000000000000000        0xc /usr/lib/gcc/avr/5.4.0/../../../avr/lib/avr5/libatmega32u4.a(eerd_dword.o)
 .text          0x0000000000000000        0x0 /usr/lib/gcc/avr/5.4.0/../../../avr/lib/avr5/libatmega32u4.a(eerd_word.o)
 .data          0x0000000000000000        0x0 /usr/lib/gcc/avr/5.4.0/../../../avr/lib/avr5/libatmega32u4.a(eerd_word.o)
 .bss           0x0000000000000000        0x0 /usr/lib/gcc/avr/5.4.0/../../../avr/lib/avr5/libatmega32u4.a(eerd_word.o)
 .text          0x0000000000000000        0x0 /usr/lib/gcc/avr/5.4.0/../../../avr/lib/avr5/libatmega32u4.a(eeupd_block.o)
 .data          0x0000000000000000        0x0 /usr/lib/gcc/avr/5.4.0/../../../avr/lib/avr5/libatmega32u4.a(eeupd_block.o)
 .bss           0x0000000000000000        0x0 /usr/lib/gcc/avr/5.4.0/../../../avr/lib/avr5/libatmega32u4.a(eeupd_block.o)
 .text          0x0000000000000000        0x0 /usr/lib/gcc/avr/5.4.0/../../../avr/lib/avr5/libatmega32u4.a(eeupd_byte.o)
 .data          0x0000000000000000        0x0 /usr/lib/gcc/avr/5.4.0/../../../avr/lib/avr5/libatmega32u4.a(eeupd_byte.o)
 .bss           0x0000000000000000        0x0 /usr/lib/gcc/avr/5.4.0/../../../avr/lib/avr5/libatmega32u4.a(eeupd_byte.o)
 .text          0x0000000000000000        0x0 /usr/lib/gcc/avr/5.4.0/../../../avr/lib/avr5/libatmega32u4.a(eeupd_dword.o)
 .data          0x0000000000000000        0x0 /usr/lib/gcc/avr/5.4.0/../../../avr/lib/avr5/libatmega32u4.a(eeupd_dword.o)
 .bss           0x0000000000000000        0x0 /usr/lib/gcc/avr/5.4.0/../../../avr/lib/avr5/libatmega32u4.a(eeupd_dword.o)
 .text          0x0000000000000000        0x0 /usr/lib/gcc/avr/5.4.0/../../../avr/lib/avr5/libatmega32u4.a(eeupd_word.o)
 .data          0x0000000000000000        0x0 /usr/lib/gcc/avr/5.4.0/../../../avr/lib/avr5/libatmega32u4.a(eeupd_word.o)
 .bss           0x0000000000000000        0x0 /usr/lib/gcc/avr/5.4.0/../../../avr/lib/avr5/libatmega32u4.a(eeupd_word.o)
 .text          0x0000000000000000        0x0 /usr/lib/gcc/avr/5.4.0/../../../avr/lib/avr5/libatmega32u4.a(eerd_block.o)
 .data          0x0000000000000000        0x0 /usr/lib/gcc/avr/5.4.0/../../../avr/lib/avr5/libatmega32u4.a(eerd_block.o)
 .bss           0x0000000000000000        0x0 /usr/lib/gcc/avr/5.4.0/../../../avr/lib/avr5/libatmega32u4.a(eerd_block.o)

Memory Configuration

Name             Origin             Length             Attributes
text             0x0000000000000000 0x0000000000008000 xr
data             0x0000000000800100 0x0000000000000a00 rw !x
eeprom           0x0000000000810000 0x0000000000000400 rw !x
fuse             0x0000000000820000 0x0000000000000003 rw !x
lock             0x0000000000830000 0x0000000000000400 rw !x
signature        0x0000000000840000 0x0000000000000400 rw !x
user_signatures  0x0000000000850000 0x0000000000000400 rw !x
*default*        0x0000000000000000 0xffffffffffffffff

Linker script and memory map

Address of section .data set to 0x800100
LOAD /usr/lib/gcc/avr/5.4.0/../../../avr/lib/avr5/crtatmega32u4.o
LOAD .build/obj_kinesis_nguyenvietyen_kinesismod/matrix.o
LOAD .build/obj_kinesis_nguyenvietyen_kinesismod/.build/obj_kinesis_nguyenvietyen_kinesismod/src/default_keyboard.o
LOAD .build/obj_kinesis_nguyenvietyen_kinesismod/quantum/keymap_introspection.o
LOAD .build/obj_kinesis_nguyenvietyen_kinesismod/quantum/quantum.o
LOAD .build/obj_kinesis_nguyenvietyen_kinesismod/quantum/bitwise.o
LOAD .build/obj_kinesis_nguyenvietyen_kinesismod/quantum/led.o
LOAD .build/obj_kinesis_nguyenvietyen_kinesismod/quantum/action.o
LOAD .build/obj_kinesis_nguyenvietyen_kinesismod/quantum/action_layer.o
LOAD .build/obj_kinesis_nguyenvietyen_kinesismod/quantum/action_tapping.o
LOAD .build/obj_kinesis_nguyenvietyen_kinesismod/quantum/action_util.o
LOAD .build/obj_kinesis_nguyenvietyen_kinesismod/quantum/eeconfig.o
LOAD .build/obj_kinesis_nguyenvietyen_kinesismod/quantum/keyboard.o
LOAD .build/obj_kinesis_nguyenvietyen_kinesismod/quantum/keymap_common.o
LOAD .build/obj_kinesis_nguyenvietyen_kinesismod/quantum/keycode_config.o
LOAD .build/obj_kinesis_nguyenvietyen_kinesismod/quantum/sync_timer.o
LOAD .build/obj_kinesis_nguyenvietyen_kinesismod/quantum/logging/debug.o
LOAD .build/obj_kinesis_nguyenvietyen_kinesismod/quantum/logging/sendchar.o
LOAD .build/obj_kinesis_nguyenvietyen_kinesismod/quantum/matrix_common.o
LOAD .build/obj_kinesis_nguyenvietyen_kinesismod/quantum/debounce/sym_defer_g.o
LOAD .build/obj_kinesis_nguyenvietyen_kinesismod/quantum/main.o
LOAD .build/obj_kinesis_nguyenvietyen_kinesismod/platforms/avr/xprintf.o
LOAD .build/obj_kinesis_nguyenvietyen_kinesismod/platforms/avr/printf.o
LOAD .build/obj_kinesis_nguyenvietyen_kinesismod/platforms/avr/sleep_led.o
LOAD .build/obj_kinesis_nguyenvietyen_kinesismod/quantum/process_keycode/process_caps_word.o
LOAD .build/obj_kinesis_nguyenvietyen_kinesismod/quantum/caps_word.o
LOAD .build/obj_kinesis_nguyenvietyen_kinesismod/quantum/process_keycode/process_grave_esc.o
LOAD .build/obj_kinesis_nguyenvietyen_kinesismod/quantum/process_keycode/process_magic.o
LOAD .build/obj_kinesis_nguyenvietyen_kinesismod/quantum/mousekey.o
LOAD .build/obj_kinesis_nguyenvietyen_kinesismod/quantum/send_string/send_string.o
LOAD .build/obj_kinesis_nguyenvietyen_kinesismod/quantum/process_keycode/process_space_cadet.o
LOAD .build/obj_kinesis_nguyenvietyen_kinesismod/protocol/host.o
LOAD .build/obj_kinesis_nguyenvietyen_kinesismod/protocol/report.o
LOAD .build/obj_kinesis_nguyenvietyen_kinesismod/protocol/usb_device_state.o
LOAD .build/obj_kinesis_nguyenvietyen_kinesismod/protocol/usb_util.o
LOAD .build/obj_kinesis_nguyenvietyen_kinesismod/platforms/suspend.o
LOAD .build/obj_kinesis_nguyenvietyen_kinesismod/platforms/synchronization_util.o
LOAD .build/obj_kinesis_nguyenvietyen_kinesismod/platforms/timer.o
LOAD .build/obj_kinesis_nguyenvietyen_kinesismod/platforms/avr/hardware_id.o
LOAD .build/obj_kinesis_nguyenvietyen_kinesismod/platforms/avr/platform.o
LOAD .build/obj_kinesis_nguyenvietyen_kinesismod/platforms/avr/suspend.o
LOAD .build/obj_kinesis_nguyenvietyen_kinesismod/platforms/avr/timer.o
LOAD .build/obj_kinesis_nguyenvietyen_kinesismod/platforms/avr/bootloaders/caterina.o
LOAD .build/obj_kinesis_nguyenvietyen_kinesismod/lufa.o
LOAD .build/obj_kinesis_nguyenvietyen_kinesismod/usb_descriptor.o
LOAD .build/obj_kinesis_nguyenvietyen_kinesismod/lib/lufa/LUFA/Drivers/USB/Class/Common/HIDParser.o
LOAD .build/obj_kinesis_nguyenvietyen_kinesismod/lib/lufa/LUFA/Drivers/USB/Core/AVR8/Device_AVR8.o
LOAD .build/obj_kinesis_nguyenvietyen_kinesismod/lib/lufa/LUFA/Drivers/USB/Core/AVR8/EndpointStream_AVR8.o
LOAD .build/obj_kinesis_nguyenvietyen_kinesismod/lib/lufa/LUFA/Drivers/USB/Core/AVR8/Endpoint_AVR8.o
LOAD .build/obj_kinesis_nguyenvietyen_kinesismod/lib/lufa/LUFA/Drivers/USB/Core/AVR8/Host_AVR8.o
LOAD .build/obj_kinesis_nguyenvietyen_kinesismod/lib/lufa/LUFA/Drivers/USB/Core/AVR8/PipeStream_AVR8.o
LOAD .build/obj_kinesis_nguyenvietyen_kinesismod/lib/lufa/LUFA/Drivers/USB/Core/AVR8/Pipe_AVR8.o
LOAD .build/obj_kinesis_nguyenvietyen_kinesismod/lib/lufa/LUFA/Drivers/USB/Core/AVR8/USBController_AVR8.o
LOAD .build/obj_kinesis_nguyenvietyen_kinesismod/lib/lufa/LUFA/Drivers/USB/Core/AVR8/USBInterrupt_AVR8.o
LOAD .build/obj_kinesis_nguyenvietyen_kinesismod/lib/lufa/LUFA/Drivers/USB/Core/ConfigDescriptors.o
LOAD .build/obj_kinesis_nguyenvietyen_kinesismod/lib/lufa/LUFA/Drivers/USB/Core/DeviceStandardReq.o
LOAD .build/obj_kinesis_nguyenvietyen_kinesismod/lib/lufa/LUFA/Drivers/USB/Core/Events.o
LOAD .build/obj_kinesis_nguyenvietyen_kinesismod/lib/lufa/LUFA/Drivers/USB/Core/HostStandardReq.o
LOAD .build/obj_kinesis_nguyenvietyen_kinesismod/lib/lufa/LUFA/Drivers/USB/Core/USBTask.o
LOAD .build/obj_kinesis_nguyenvietyen_kinesismod/protocol/lufa/usb_util.o
LOAD /usr/lib/gcc/avr/5.4.0/../../../avr/lib/avr5/libm.a
START GROUP
LOAD /usr/lib/gcc/avr/5.4.0/avr5/libgcc.a
LOAD /usr/lib/gcc/avr/5.4.0/../../../avr/lib/avr5/libm.a
LOAD /usr/lib/gcc/avr/5.4.0/../../../avr/lib/avr5/libc.a
LOAD /usr/lib/gcc/avr/5.4.0/../../../avr/lib/avr5/libatmega32u4.a
END GROUP
                0x0000000000000000                __TEXT_REGION_ORIGIN__ = DEFINED (__TEXT_REGION_ORIGIN__)?__TEXT_REGION_ORIGIN__:0x0
                [0x0000000000800100]                __DATA_REGION_ORIGIN__ = DEFINED (__DATA_REGION_ORIGIN__)?__DATA_REGION_ORIGIN__:0x800060
                [0x0000000000008000]                __TEXT_REGION_LENGTH__ = DEFINED (__TEXT_REGION_LENGTH__)?__TEXT_REGION_LENGTH__:0x20000
                [0x0000000000000a00]                __DATA_REGION_LENGTH__ = DEFINED (__DATA_REGION_LENGTH__)?__DATA_REGION_LENGTH__:0xffa0
                [0x0000000000000400]                __EEPROM_REGION_LENGTH__ = DEFINED (__EEPROM_REGION_LENGTH__)?__EEPROM_REGION_LENGTH__:0x10000
                [0x0000000000000003]                __FUSE_REGION_LENGTH__ = DEFINED (__FUSE_REGION_LENGTH__)?__FUSE_REGION_LENGTH__:0x400
                0x0000000000000400                __LOCK_REGION_LENGTH__ = DEFINED (__LOCK_REGION_LENGTH__)?__LOCK_REGION_LENGTH__:0x400
                0x0000000000000400                __SIGNATURE_REGION_LENGTH__ = DEFINED (__SIGNATURE_REGION_LENGTH__)?__SIGNATURE_REGION_LENGTH__:0x400
                0x0000000000000400                __USER_SIGNATURE_REGION_LENGTH__ = DEFINED (__USER_SIGNATURE_REGION_LENGTH__)?__USER_SIGNATURE_REGION_LENGTH__:0x400

.hash
 *(.hash)

.dynsym
 *(.dynsym)

.dynstr
 *(.dynstr)

.gnu.version
 *(.gnu.version)

.gnu.version_d
 *(.gnu.version_d)

.gnu.version_r
 *(.gnu.version_r)

.rel.init
 *(.rel.init)

.rela.init
 *(.rela.init)

.rel.text
 *(.rel.text)
 *(.rel.text.*)
 *(.rel.gnu.linkonce.t*)

.rela.text
 *(.rela.text)
 *(.rela.text.*)
 *(.rela.gnu.linkonce.t*)

.rel.fini
 *(.rel.fini)

.rela.fini
 *(.rela.fini)

.rel.rodata
 *(.rel.rodata)
 *(.rel.rodata.*)
 *(.rel.gnu.linkonce.r*)

.rela.rodata
 *(.rela.rodata)
 *(.rela.rodata.*)
 *(.rela.gnu.linkonce.r*)

.rel.data
 *(.rel.data)
 *(.rel.data.*)
 *(.rel.gnu.linkonce.d*)

.rela.data
 *(.rela.data)
 *(.rela.data.*)
 *(.rela.gnu.linkonce.d*)

.rel.ctors
 *(.rel.ctors)

.rela.ctors
 *(.rela.ctors)

.rel.dtors
 *(.rel.dtors)

.rela.dtors
 *(.rela.dtors)

.rel.got
 *(.rel.got)

.rela.got
 *(.rela.got)

.rel.bss
 *(.rel.bss)

.rela.bss
 *(.rela.bss)

.rel.plt
 *(.rel.plt)

.rela.plt
 *(.rela.plt)

.text           0x0000000000000000     0x4450
 *(.vectors)
 .vectors       0x0000000000000000       0xac /usr/lib/gcc/avr/5.4.0/../../../avr/lib/avr5/crtatmega32u4.o
                0x0000000000000000                __vectors
                0x0000000000000000                __vector_default
 *(.vectors)
 *(.progmem.gcc*)
 .progmem.gcc_sw_table.process_action
                0x00000000000000ac       0x18 .build/obj_kinesis_nguyenvietyen_kinesismod/quantum/action.o
 .progmem.gcc_sw_table.process_magic
                0x00000000000000c4       0x44 .build/obj_kinesis_nguyenvietyen_kinesismod/quantum/process_keycode/process_magic.o
 .progmem.gcc_sw_table.process_space_cadet
                0x0000000000000108        0xe .build/obj_kinesis_nguyenvietyen_kinesismod/quantum/process_keycode/process_space_cadet.o
 .progmem.gcc_sw_table.USB_Device_ProcessControlRequest
                0x0000000000000116       0x14 .build/obj_kinesis_nguyenvietyen_kinesismod/lib/lufa/LUFA/Drivers/USB/Core/DeviceStandardReq.o
                0x000000000000012a                . = ALIGN (0x2)
                0x000000000000012a                __trampolines_start = .
 *(.trampolines)
 .trampolines   0x000000000000012a        0x0 linker stubs
 *(.trampolines*)
                0x000000000000012a                __trampolines_end = .
 *libprintf_flt.a:*(.progmem.data)
 *libc.a:*(.progmem.data)
 *(.progmem*)
 .progmem.data.keymaps
                0x000000000000012a      0x300 .build/obj_kinesis_nguyenvietyen_kinesismod/quantum/keymap_introspection.o
                0x000000000000012a                keymaps
 .progmem.data.breathing_table
                0x000000000000042a       0x40 .build/obj_kinesis_nguyenvietyen_kinesismod/platforms/avr/sleep_led.o
 .progmem.data.ProductString
                0x000000000000046a       0x4a .build/obj_kinesis_nguyenvietyen_kinesismod/usb_descriptor.o
                0x000000000000046a                ProductString
 .progmem.data.ManufacturerString
                0x00000000000004b4        0xa .build/obj_kinesis_nguyenvietyen_kinesismod/usb_descriptor.o
                0x00000000000004b4                ManufacturerString
 .progmem.data.LanguageString
                0x00000000000004be        0x4 .build/obj_kinesis_nguyenvietyen_kinesismod/usb_descriptor.o
                0x00000000000004be                LanguageString
 .progmem.data.ConfigurationDescriptor
                0x00000000000004c2       0x3b .build/obj_kinesis_nguyenvietyen_kinesismod/usb_descriptor.o
                0x00000000000004c2                ConfigurationDescriptor
 .progmem.data.DeviceDescriptor
                0x00000000000004fd       0x12 .build/obj_kinesis_nguyenvietyen_kinesismod/usb_descriptor.o
                0x00000000000004fd                DeviceDescriptor
 .progmem.data.SharedReport
                0x000000000000050f       0xb6 .build/obj_kinesis_nguyenvietyen_kinesismod/usb_descriptor.o
                0x000000000000050f                SharedReport
 .progmem.data.KeyboardReport
                0x00000000000005c5       0x44 .build/obj_kinesis_nguyenvietyen_kinesismod/usb_descriptor.o
                0x00000000000005c5                KeyboardReport
                0x000000000000060a                . = ALIGN (0x2)
 *fill*         0x0000000000000609        0x1 
 *(.jumptables)
 *(.jumptables*)
 *(.lowtext)
 *(.lowtext*)
                0x000000000000060a                __ctors_start = .
 *(.ctors)
                0x000000000000060a                __ctors_end = .
                0x000000000000060a                __dtors_start = .
 *(.dtors)
                0x000000000000060a                __dtors_end = .
 SORT(*)(.ctors)
 SORT(*)(.dtors)
 *(.init0)
 .init0         0x000000000000060a        0x0 /usr/lib/gcc/avr/5.4.0/../../../avr/lib/avr5/crtatmega32u4.o
                0x000000000000060a                __init
 *(.init0)
 *(.init1)
 *(.init1)
 *(.init2)
 .init2         0x000000000000060a        0xc /usr/lib/gcc/avr/5.4.0/../../../avr/lib/avr5/crtatmega32u4.o
 *(.init2)
 *(.init3)
 *(.init3)
 *(.init4)
 .init4         0x0000000000000616       0x16 /usr/lib/gcc/avr/5.4.0/avr5/libgcc.a(_copy_data.o)
                0x0000000000000616                __do_copy_data
 .init4         0x000000000000062c       0x10 /usr/lib/gcc/avr/5.4.0/avr5/libgcc.a(_clear_bss.o)
                0x000000000000062c                __do_clear_bss
 *(.init4)
 *(.init5)
 *(.init5)
 *(.init6)
 *(.init6)
 *(.init7)
 *(.init7)
 *(.init8)
 *(.init8)
 *(.init9)
 .init9         0x000000000000063c        0x8 /usr/lib/gcc/avr/5.4.0/../../../avr/lib/avr5/crtatmega32u4.o
 *(.init9)
 *(.text)
 .text          0x0000000000000644        0x4 /usr/lib/gcc/avr/5.4.0/../../../avr/lib/avr5/crtatmega32u4.o
                0x0000000000000644                __vector_38
                0x0000000000000644                __vector_22
                0x0000000000000644                __vector_28
                0x0000000000000644                __vector_1
                0x0000000000000644                __vector_32
                0x0000000000000644                __vector_34
                0x0000000000000644                __vector_24
                0x0000000000000644                __vector_12
                0x0000000000000644                __bad_interrupt
                0x0000000000000644                __vector_6
                0x0000000000000644                __vector_31
                0x0000000000000644                __vector_35
                0x0000000000000644                __vector_39
                0x0000000000000644                __vector_3
                0x0000000000000644                __vector_23
                0x0000000000000644                __vector_30
                0x0000000000000644                __vector_25
                0x0000000000000644                __vector_13
                0x0000000000000644                __vector_19
                0x0000000000000644                __vector_7
                0x0000000000000644                __vector_41
                0x0000000000000644                __vector_27
                0x0000000000000644                __vector_5
                0x0000000000000644                __vector_33
                0x0000000000000644                __vector_37
                0x0000000000000644                __vector_4
                0x0000000000000644                __vector_9
                0x0000000000000644                __vector_2
                0x0000000000000644                __vector_15
                0x0000000000000644                __vector_36
                0x0000000000000644                __vector_29
                0x0000000000000644                __vector_40
                0x0000000000000644                __vector_8
                0x0000000000000644                __vector_26
                0x0000000000000644                __vector_14
                0x0000000000000644                __vector_16
                0x0000000000000644                __vector_18
                0x0000000000000644                __vector_20
                0x0000000000000644                __vector_42
                0x0000000000000648                . = ALIGN (0x2)
 *(.text.*)
 .text.matrix_init_custom
                0x0000000000000648       0x38 .build/obj_kinesis_nguyenvietyen_kinesismod/matrix.o
                0x0000000000000648                matrix_init_custom
 .text.matrix_scan_custom
                0x0000000000000680       0xb8 .build/obj_kinesis_nguyenvietyen_kinesismod/matrix.o
                0x0000000000000680                matrix_scan_custom
 .text.caps_word_press_user
                0x0000000000000738       0x56 .build/obj_kinesis_nguyenvietyen_kinesismod/quantum/keymap_introspection.o
                0x0000000000000738                caps_word_press_user
 .text.keycode_at_keymap_location_raw
                0x000000000000078e       0x3c .build/obj_kinesis_nguyenvietyen_kinesismod/quantum/keymap_introspection.o
                0x000000000000078e                keycode_at_keymap_location_raw
 .text.keycode_at_keymap_location
                0x00000000000007ca        0x6 .build/obj_kinesis_nguyenvietyen_kinesismod/quantum/keymap_introspection.o
                0x00000000000007ca                keycode_at_keymap_location
 .text.process_action_kb
                0x00000000000007d0        0x4 .build/obj_kinesis_nguyenvietyen_kinesismod/quantum/quantum.o
                0x00000000000007d0                process_action_kb
 .text.process_record_user
                0x00000000000007d4        0x4 .build/obj_kinesis_nguyenvietyen_kinesismod/quantum/quantum.o
                0x00000000000007d4                process_record_user
 .text.pre_process_record_user
                0x00000000000007d8        0x6 .build/obj_kinesis_nguyenvietyen_kinesismod/quantum/quantum.o
                0x00000000000007d8                pre_process_record_user
 .text.pre_process_record_kb
                0x00000000000007de        0x6 .build/obj_kinesis_nguyenvietyen_kinesismod/quantum/quantum.o
                0x00000000000007de                pre_process_record_kb
 .text.process_record_kb
                0x00000000000007e4        0x6 .build/obj_kinesis_nguyenvietyen_kinesismod/quantum/quantum.o
                0x00000000000007e4                process_record_kb
 .text.post_process_record_user
                0x00000000000007ea        0x2 .build/obj_kinesis_nguyenvietyen_kinesismod/quantum/quantum.o
                0x00000000000007ea                post_process_record_user
 .text.post_process_record_kb
                0x00000000000007ec        0x6 .build/obj_kinesis_nguyenvietyen_kinesismod/quantum/quantum.o
                0x00000000000007ec                post_process_record_kb
 .text.get_event_keycode
                0x00000000000007f2       0x5c .build/obj_kinesis_nguyenvietyen_kinesismod/quantum/quantum.o
                0x00000000000007f2                get_event_keycode
 .text.get_record_keycode
                0x000000000000084e       0x16 .build/obj_kinesis_nguyenvietyen_kinesismod/quantum/quantum.o
                0x000000000000084e                get_record_keycode
 .text.pre_process_record_quantum
                0x0000000000000864       0x18 .build/obj_kinesis_nguyenvietyen_kinesismod/quantum/quantum.o
                0x0000000000000864                pre_process_record_quantum
 .text.post_process_record_quantum
                0x000000000000087c       0x18 .build/obj_kinesis_nguyenvietyen_kinesismod/quantum/quantum.o
                0x000000000000087c                post_process_record_quantum
 .text.shutdown_user
                0x0000000000000894        0x4 .build/obj_kinesis_nguyenvietyen_kinesismod/quantum/quantum.o
                0x0000000000000894                shutdown_user
 .text.shutdown_kb
                0x0000000000000898        0x6 .build/obj_kinesis_nguyenvietyen_kinesismod/quantum/quantum.o
                0x0000000000000898                shutdown_kb
 .text.shutdown_quantum
                0x000000000000089e       0x24 .build/obj_kinesis_nguyenvietyen_kinesismod/quantum/quantum.o
                0x000000000000089e                shutdown_quantum
 .text.reset_keyboard
                0x00000000000008c2        0xc .build/obj_kinesis_nguyenvietyen_kinesismod/quantum/quantum.o
                0x00000000000008c2                reset_keyboard
 .text.soft_reset_keyboard
                0x00000000000008ce        0xc .build/obj_kinesis_nguyenvietyen_kinesismod/quantum/quantum.o
                0x00000000000008ce                soft_reset_keyboard
 .text.process_record_quantum
                0x00000000000008da       0xbc .build/obj_kinesis_nguyenvietyen_kinesismod/quantum/quantum.o
                0x00000000000008da                process_record_quantum
 .text.suspend_power_down_quantum
                0x0000000000000996        0x6 .build/obj_kinesis_nguyenvietyen_kinesismod/quantum/quantum.o
                0x0000000000000996                suspend_power_down_quantum
 .text.suspend_wakeup_init_quantum
                0x000000000000099c        0xa .build/obj_kinesis_nguyenvietyen_kinesismod/quantum/quantum.o
                0x000000000000099c                suspend_wakeup_init_quantum
 .text.led_update_user
                0x00000000000009a6        0x4 .build/obj_kinesis_nguyenvietyen_kinesismod/quantum/led.o
                0x00000000000009a6                led_update_user
 .text.led_update_ports
                0x00000000000009aa       0x2c .build/obj_kinesis_nguyenvietyen_kinesismod/quantum/led.o
                0x00000000000009aa                led_update_ports
 .text.led_update_kb
                0x00000000000009d6       0x1e .build/obj_kinesis_nguyenvietyen_kinesismod/quantum/led.o
                0x00000000000009d6                led_update_kb
 .text.led_init_ports
                0x00000000000009f4       0x12 .build/obj_kinesis_nguyenvietyen_kinesismod/quantum/led.o
                0x00000000000009f4                led_init_ports
 .text.led_set  0x0000000000000a06        0x6 .build/obj_kinesis_nguyenvietyen_kinesismod/quantum/led.o
                0x0000000000000a06                led_set
 .text.led_wakeup
                0x0000000000000a0c        0xa .build/obj_kinesis_nguyenvietyen_kinesismod/quantum/led.o
                0x0000000000000a0c                led_wakeup
 .text.led_task
                0x0000000000000a16       0x32 .build/obj_kinesis_nguyenvietyen_kinesismod/quantum/led.o
                0x0000000000000a16                led_task
 .text.action_exec
                0x0000000000000a48       0x66 .build/obj_kinesis_nguyenvietyen_kinesismod/quantum/action.o
                0x0000000000000a48                action_exec
 .text.process_record_tap_hint
                0x0000000000000aae       0x12 .build/obj_kinesis_nguyenvietyen_kinesismod/quantum/action.o
                0x0000000000000aae                process_record_tap_hint
 .text.register_mouse
                0x0000000000000ac0       0x14 .build/obj_kinesis_nguyenvietyen_kinesismod/quantum/action.o
                0x0000000000000ac0                register_mouse
 .text.register_code
                0x0000000000000ad4      0x11c .build/obj_kinesis_nguyenvietyen_kinesismod/quantum/action.o
                0x0000000000000ad4                register_code
 .text.unregister_code
                0x0000000000000bf0       0xb4 .build/obj_kinesis_nguyenvietyen_kinesismod/quantum/action.o
                0x0000000000000bf0                unregister_code
 .text.tap_code_delay
                0x0000000000000ca4       0x30 .build/obj_kinesis_nguyenvietyen_kinesismod/quantum/action.o
                0x0000000000000ca4                tap_code_delay
 .text.tap_code
                0x0000000000000cd4       0x14 .build/obj_kinesis_nguyenvietyen_kinesismod/quantum/action.o
                0x0000000000000cd4                tap_code
 .text.register_mods
                0x0000000000000ce8        0xe .build/obj_kinesis_nguyenvietyen_kinesismod/quantum/action.o
                0x0000000000000ce8                register_mods
 .text.unregister_mods
                0x0000000000000cf6        0xe .build/obj_kinesis_nguyenvietyen_kinesismod/quantum/action.o
                0x0000000000000cf6                unregister_mods
 .text.process_action
                0x0000000000000d04      0x3f0 .build/obj_kinesis_nguyenvietyen_kinesismod/quantum/action.o
                0x0000000000000d04                process_action
 .text.process_record_handler
                0x00000000000010f4       0x30 .build/obj_kinesis_nguyenvietyen_kinesismod/quantum/action.o
                0x00000000000010f4                process_record_handler
 .text.process_record
                0x0000000000001124       0x46 .build/obj_kinesis_nguyenvietyen_kinesismod/quantum/action.o
                0x0000000000001124                process_record
 .text.unregister_weak_mods
                0x000000000000116a        0xe .build/obj_kinesis_nguyenvietyen_kinesismod/quantum/action.o
                0x000000000000116a                unregister_weak_mods
 .text.clear_keyboard_but_mods_and_keys
                0x0000000000001178       0x22 .build/obj_kinesis_nguyenvietyen_kinesismod/quantum/action.o
                0x0000000000001178                clear_keyboard_but_mods_and_keys
 .text.clear_keyboard_but_mods
                0x000000000000119a        0xa .build/obj_kinesis_nguyenvietyen_kinesismod/quantum/action.o
                0x000000000000119a                clear_keyboard_but_mods
 .text.clear_keyboard
                0x00000000000011a4        0xa .build/obj_kinesis_nguyenvietyen_kinesismod/quantum/action.o
                0x00000000000011a4                clear_keyboard
 .text.is_tap_action
                0x00000000000011ae       0x36 .build/obj_kinesis_nguyenvietyen_kinesismod/quantum/action.o
                0x00000000000011ae                is_tap_action
 .text.is_tap_record
                0x00000000000011e4       0x1a .build/obj_kinesis_nguyenvietyen_kinesismod/quantum/action.o
                0x00000000000011e4                is_tap_record
 .text.debug_event
                0x00000000000011fe       0x14 .build/obj_kinesis_nguyenvietyen_kinesismod/quantum/action.o
                0x00000000000011fe                debug_event
 .text.debug_record
                0x0000000000001212       0x14 .build/obj_kinesis_nguyenvietyen_kinesismod/quantum/action.o
                0x0000000000001212                debug_record
 .text.default_layer_debug
                0x0000000000001226        0x2 .build/obj_kinesis_nguyenvietyen_kinesismod/quantum/action_layer.o
                0x0000000000001226                default_layer_debug
 .text.layer_state_set_user
                0x0000000000001228        0x2 .build/obj_kinesis_nguyenvietyen_kinesismod/quantum/action_layer.o
                0x0000000000001228                layer_state_set_user
 .text.default_layer_state_set_user
                0x000000000000122a        0x6 .build/obj_kinesis_nguyenvietyen_kinesismod/quantum/action_layer.o
                0x000000000000122a                default_layer_state_set_user
 .text.default_layer_state_set_kb
                0x0000000000001230        0x6 .build/obj_kinesis_nguyenvietyen_kinesismod/quantum/action_layer.o
                0x0000000000001230                default_layer_state_set_kb
 .text.default_layer_state_set
                0x0000000000001236        0xe .build/obj_kinesis_nguyenvietyen_kinesismod/quantum/action_layer.o
 .text.default_layer_set
                0x0000000000001244        0x6 .build/obj_kinesis_nguyenvietyen_kinesismod/quantum/action_layer.o
                0x0000000000001244                default_layer_set
 .text.default_layer_or
                0x000000000000124a       0x12 .build/obj_kinesis_nguyenvietyen_kinesismod/quantum/action_layer.o
                0x000000000000124a                default_layer_or
 .text.default_layer_and
                0x000000000000125c       0x12 .build/obj_kinesis_nguyenvietyen_kinesismod/quantum/action_layer.o
                0x000000000000125c                default_layer_and
 .text.default_layer_xor
                0x000000000000126e       0x12 .build/obj_kinesis_nguyenvietyen_kinesismod/quantum/action_layer.o
                0x000000000000126e                default_layer_xor
 .text.layer_state_set_kb
                0x0000000000001280        0x6 .build/obj_kinesis_nguyenvietyen_kinesismod/quantum/action_layer.o
                0x0000000000001280                layer_state_set_kb
 .text.layer_state_set
                0x0000000000001286        0xe .build/obj_kinesis_nguyenvietyen_kinesismod/quantum/action_layer.o
                0x0000000000001286                layer_state_set
 .text.layer_clear
                0x0000000000001294        0xa .build/obj_kinesis_nguyenvietyen_kinesismod/quantum/action_layer.o
                0x0000000000001294                layer_clear
 .text.layer_move
                0x000000000000129e       0x18 .build/obj_kinesis_nguyenvietyen_kinesismod/quantum/action_layer.o
                0x000000000000129e                layer_move
 .text.layer_on
                0x00000000000012b6       0x20 .build/obj_kinesis_nguyenvietyen_kinesismod/quantum/action_layer.o
                0x00000000000012b6                layer_on
 .text.layer_off
                0x00000000000012d6       0x24 .build/obj_kinesis_nguyenvietyen_kinesismod/quantum/action_layer.o
                0x00000000000012d6                layer_off
 .text.layer_invert
                0x00000000000012fa       0x20 .build/obj_kinesis_nguyenvietyen_kinesismod/quantum/action_layer.o
                0x00000000000012fa                layer_invert
 .text.layer_or
                0x000000000000131a       0x12 .build/obj_kinesis_nguyenvietyen_kinesismod/quantum/action_layer.o
                0x000000000000131a                layer_or
 .text.layer_and
                0x000000000000132c       0x12 .build/obj_kinesis_nguyenvietyen_kinesismod/quantum/action_layer.o
                0x000000000000132c                layer_and
 .text.layer_xor
                0x000000000000133e       0x12 .build/obj_kinesis_nguyenvietyen_kinesismod/quantum/action_layer.o
                0x000000000000133e                layer_xor
 .text.layer_debug
                0x0000000000001350        0x2 .build/obj_kinesis_nguyenvietyen_kinesismod/quantum/action_layer.o
                0x0000000000001350                layer_debug
 .text.update_source_layers_cache_impl
                0x0000000000001352       0x56 .build/obj_kinesis_nguyenvietyen_kinesismod/quantum/action_layer.o
                0x0000000000001352                update_source_layers_cache_impl
 .text.read_source_layers_cache_impl
                0x00000000000013a8       0x4e .build/obj_kinesis_nguyenvietyen_kinesismod/quantum/action_layer.o
                0x00000000000013a8                read_source_layers_cache_impl
 .text.update_source_layers_cache
                0x00000000000013f6       0x24 .build/obj_kinesis_nguyenvietyen_kinesismod/quantum/action_layer.o
                0x00000000000013f6                update_source_layers_cache
 .text.read_source_layers_cache
                0x000000000000141a       0x24 .build/obj_kinesis_nguyenvietyen_kinesismod/quantum/action_layer.o
                0x000000000000141a                read_source_layers_cache
 .text.layer_switch_get_layer
                0x000000000000143e       0x64 .build/obj_kinesis_nguyenvietyen_kinesismod/quantum/action_layer.o
                0x000000000000143e                layer_switch_get_layer
 .text.layer_switch_get_action
                0x00000000000014a2       0x16 .build/obj_kinesis_nguyenvietyen_kinesismod/quantum/action_layer.o
                0x00000000000014a2                layer_switch_get_action
 .text.store_or_get_action
                0x00000000000014b8       0x46 .build/obj_kinesis_nguyenvietyen_kinesismod/quantum/action_layer.o
                0x00000000000014b8                store_or_get_action
 .text.debug_waiting_buffer
                0x00000000000014fe       0x44 .build/obj_kinesis_nguyenvietyen_kinesismod/quantum/action_tapping.o
 .text.debug_tapping_key
                0x0000000000001542       0x22 .build/obj_kinesis_nguyenvietyen_kinesismod/quantum/action_tapping.o
 .text.waiting_buffer_scan_tap
                0x0000000000001564       0xb2 .build/obj_kinesis_nguyenvietyen_kinesismod/quantum/action_tapping.o
 .text.waiting_buffer_typed.isra.2
                0x0000000000001616       0x40 .build/obj_kinesis_nguyenvietyen_kinesismod/quantum/action_tapping.o
 .text.process_tapping
                0x0000000000001656      0x320 .build/obj_kinesis_nguyenvietyen_kinesismod/quantum/action_tapping.o
 .text.action_tapping_process
                0x0000000000001976      0x10a .build/obj_kinesis_nguyenvietyen_kinesismod/quantum/action_tapping.o
                0x0000000000001976                action_tapping_process
 .text.get_oneshot_layer
                0x0000000000001a80        0xc .build/obj_kinesis_nguyenvietyen_kinesismod/quantum/action_util.o
                0x0000000000001a80                get_oneshot_layer
 .text.get_oneshot_layer_state
                0x0000000000001a8c        0x8 .build/obj_kinesis_nguyenvietyen_kinesismod/quantum/action_util.o
                0x0000000000001a8c                get_oneshot_layer_state
 .text.is_oneshot_layer_active
                0x0000000000001a94        0xe .build/obj_kinesis_nguyenvietyen_kinesismod/quantum/action_util.o
                0x0000000000001a94                is_oneshot_layer_active
 .text.get_mods
                0x0000000000001aa2        0x6 .build/obj_kinesis_nguyenvietyen_kinesismod/quantum/action_util.o
                0x0000000000001aa2                get_mods
 .text.add_mods
                0x0000000000001aa8        0xc .build/obj_kinesis_nguyenvietyen_kinesismod/quantum/action_util.o
                0x0000000000001aa8                add_mods
 .text.del_mods
                0x0000000000001ab4        0xe .build/obj_kinesis_nguyenvietyen_kinesismod/quantum/action_util.o
                0x0000000000001ab4                del_mods
 .text.clear_mods
                0x0000000000001ac2        0x6 .build/obj_kinesis_nguyenvietyen_kinesismod/quantum/action_util.o
                0x0000000000001ac2                clear_mods
 .text.add_weak_mods
                0x0000000000001ac8        0xc .build/obj_kinesis_nguyenvietyen_kinesismod/quantum/action_util.o
                0x0000000000001ac8                add_weak_mods
 .text.del_weak_mods
                0x0000000000001ad4        0xe .build/obj_kinesis_nguyenvietyen_kinesismod/quantum/action_util.o
                0x0000000000001ad4                del_weak_mods
 .text.clear_weak_mods
                0x0000000000001ae2        0x6 .build/obj_kinesis_nguyenvietyen_kinesismod/quantum/action_util.o
                0x0000000000001ae2                clear_weak_mods
 .text.get_oneshot_mods
                0x0000000000001ae8        0x6 .build/obj_kinesis_nguyenvietyen_kinesismod/quantum/action_util.o
                0x0000000000001ae8                get_oneshot_mods
 .text.oneshot_layer_changed_user
                0x0000000000001aee        0x2 .build/obj_kinesis_nguyenvietyen_kinesismod/quantum/action_util.o
                0x0000000000001aee                oneshot_layer_changed_user
 .text.oneshot_mods_changed_user
                0x0000000000001af0        0x6 .build/obj_kinesis_nguyenvietyen_kinesismod/quantum/action_util.o
                0x0000000000001af0                oneshot_mods_changed_user
 .text.oneshot_mods_changed_kb
                0x0000000000001af6        0x6 .build/obj_kinesis_nguyenvietyen_kinesismod/quantum/action_util.o
                0x0000000000001af6                oneshot_mods_changed_kb
 .text.add_oneshot_mods
                0x0000000000001afc       0x18 .build/obj_kinesis_nguyenvietyen_kinesismod/quantum/action_util.o
                0x0000000000001afc                add_oneshot_mods
 .text.del_oneshot_mods
                0x0000000000001b14       0x18 .build/obj_kinesis_nguyenvietyen_kinesismod/quantum/action_util.o
                0x0000000000001b14                del_oneshot_mods
 .text.clear_oneshot_mods
                0x0000000000001b2c       0x14 .build/obj_kinesis_nguyenvietyen_kinesismod/quantum/action_util.o
                0x0000000000001b2c                clear_oneshot_mods
 .text.get_mods_for_report
                0x0000000000001b40       0x26 .build/obj_kinesis_nguyenvietyen_kinesismod/quantum/action_util.o
 .text.send_6kro_report
                0x0000000000001b66       0x48 .build/obj_kinesis_nguyenvietyen_kinesismod/quantum/action_util.o
                0x0000000000001b66                send_6kro_report
 .text.send_nkro_report
                0x0000000000001bae       0x48 .build/obj_kinesis_nguyenvietyen_kinesismod/quantum/action_util.o
                0x0000000000001bae                send_nkro_report
 .text.send_keyboard_report
                0x0000000000001bf6       0x1c .build/obj_kinesis_nguyenvietyen_kinesismod/quantum/action_util.o
                0x0000000000001bf6                send_keyboard_report
 .text.oneshot_locked_mods_changed_user
                0x0000000000001c12        0x6 .build/obj_kinesis_nguyenvietyen_kinesismod/quantum/action_util.o
                0x0000000000001c12                oneshot_locked_mods_changed_user
 .text.oneshot_locked_mods_changed_kb
                0x0000000000001c18        0x6 .build/obj_kinesis_nguyenvietyen_kinesismod/quantum/action_util.o
                0x0000000000001c18                oneshot_locked_mods_changed_kb
 .text.del_oneshot_locked_mods
                0x0000000000001c1e       0x18 .build/obj_kinesis_nguyenvietyen_kinesismod/quantum/action_util.o
                0x0000000000001c1e                del_oneshot_locked_mods
 .text.oneshot_layer_changed_kb
                0x0000000000001c36        0x6 .build/obj_kinesis_nguyenvietyen_kinesismod/quantum/action_util.o
                0x0000000000001c36                oneshot_layer_changed_kb
 .text.set_oneshot_layer
                0x0000000000001c3c       0x30 .build/obj_kinesis_nguyenvietyen_kinesismod/quantum/action_util.o
                0x0000000000001c3c                set_oneshot_layer
 .text.reset_oneshot_layer
                0x0000000000001c6c        0xc .build/obj_kinesis_nguyenvietyen_kinesismod/quantum/action_util.o
                0x0000000000001c6c                reset_oneshot_layer
 .text.clear_oneshot_layer_state
                0x0000000000001c78       0x2e .build/obj_kinesis_nguyenvietyen_kinesismod/quantum/action_util.o
                0x0000000000001c78                clear_oneshot_layer_state
 .text.oneshot_set
                0x0000000000001ca6       0x2a .build/obj_kinesis_nguyenvietyen_kinesismod/quantum/action_util.o
                0x0000000000001ca6                oneshot_set
 .text.oneshot_toggle
                0x0000000000001cd0       0x14 .build/obj_kinesis_nguyenvietyen_kinesismod/quantum/action_util.o
                0x0000000000001cd0                oneshot_toggle
 .text.oneshot_enable
                0x0000000000001ce4        0x8 .build/obj_kinesis_nguyenvietyen_kinesismod/quantum/action_util.o
                0x0000000000001ce4                oneshot_enable
 .text.oneshot_disable
                0x0000000000001cec        0x8 .build/obj_kinesis_nguyenvietyen_kinesismod/quantum/action_util.o
                0x0000000000001cec                oneshot_disable
 .text.eeconfig_disable
                0x0000000000001cf4        0xe .build/obj_kinesis_nguyenvietyen_kinesismod/quantum/eeconfig.o
                0x0000000000001cf4                eeconfig_disable
 .text.eeconfig_is_enabled
                0x0000000000001d02       0x16 .build/obj_kinesis_nguyenvietyen_kinesismod/quantum/eeconfig.o
                0x0000000000001d02                eeconfig_is_enabled
 .text.eeconfig_read_debug
                0x0000000000001d18        0xa .build/obj_kinesis_nguyenvietyen_kinesismod/quantum/eeconfig.o
                0x0000000000001d18                eeconfig_read_debug
 .text.eeconfig_read_default_layer
                0x0000000000001d22        0xa .build/obj_kinesis_nguyenvietyen_kinesismod/quantum/eeconfig.o
                0x0000000000001d22                eeconfig_read_default_layer
 .text.eeconfig_read_keymap
                0x0000000000001d2c        0xa .build/obj_kinesis_nguyenvietyen_kinesismod/quantum/eeconfig.o
                0x0000000000001d2c                eeconfig_read_keymap
 .text.eeconfig_update_keymap
                0x0000000000001d36        0xc .build/obj_kinesis_nguyenvietyen_kinesismod/quantum/eeconfig.o
                0x0000000000001d36                eeconfig_update_keymap
 .text.eeconfig_update_kb
                0x0000000000001d42        0xe .build/obj_kinesis_nguyenvietyen_kinesismod/quantum/eeconfig.o
                0x0000000000001d42                eeconfig_update_kb
 .text.eeconfig_update_user
                0x0000000000001d50        0xe .build/obj_kinesis_nguyenvietyen_kinesismod/quantum/eeconfig.o
                0x0000000000001d50                eeconfig_update_user
 .text.eeconfig_init_user
                0x0000000000001d5e        0xc .build/obj_kinesis_nguyenvietyen_kinesismod/quantum/eeconfig.o
                0x0000000000001d5e                eeconfig_init_user
 .text.eeconfig_init_kb
                0x0000000000001d6a       0x10 .build/obj_kinesis_nguyenvietyen_kinesismod/quantum/eeconfig.o
                0x0000000000001d6a                eeconfig_init_kb
 .text.eeconfig_init_quantum
                0x0000000000001d7a       0xbe .build/obj_kinesis_nguyenvietyen_kinesismod/quantum/eeconfig.o
                0x0000000000001d7a                eeconfig_init_quantum
 .text.eeconfig_init
                0x0000000000001e38        0x6 .build/obj_kinesis_nguyenvietyen_kinesismod/quantum/eeconfig.o
                0x0000000000001e38                eeconfig_init
 .text.eeconfig_update_handedness
                0x0000000000001e3e        0xc .build/obj_kinesis_nguyenvietyen_kinesismod/quantum/eeconfig.o
                0x0000000000001e3e                eeconfig_update_handedness
 .text.generate_tick_event
                0x0000000000001e4a       0x48 .build/obj_kinesis_nguyenvietyen_kinesismod/quantum/keyboard.o
 .text.last_matrix_activity_trigger
                0x0000000000001e92       0x26 .build/obj_kinesis_nguyenvietyen_kinesismod/quantum/keyboard.o
                0x0000000000001e92                last_matrix_activity_trigger
 .text.matrix_can_read
                0x0000000000001eb8        0x4 .build/obj_kinesis_nguyenvietyen_kinesismod/quantum/keyboard.o
                0x0000000000001eb8                matrix_can_read
 .text.is_keyboard_master
                0x0000000000001ebc        0x4 .build/obj_kinesis_nguyenvietyen_kinesismod/quantum/keyboard.o
                0x0000000000001ebc                is_keyboard_master
 .text.should_process_keypress
                0x0000000000001ec0        0x6 .build/obj_kinesis_nguyenvietyen_kinesismod/quantum/keyboard.o
                0x0000000000001ec0                should_process_keypress
 .text.housekeeping_task_user
                0x0000000000001ec6        0x2 .build/obj_kinesis_nguyenvietyen_kinesismod/quantum/keyboard.o
                0x0000000000001ec6                housekeeping_task_user
 .text.housekeeping_task_kb
                0x0000000000001ec8        0x6 .build/obj_kinesis_nguyenvietyen_kinesismod/quantum/keyboard.o
                0x0000000000001ec8                housekeeping_task_kb
 .text.keyboard_post_init_user
                0x0000000000001ece        0x6 .build/obj_kinesis_nguyenvietyen_kinesismod/quantum/keyboard.o
                0x0000000000001ece                keyboard_post_init_user
 .text.keyboard_post_init_kb
                0x0000000000001ed4        0x6 .build/obj_kinesis_nguyenvietyen_kinesismod/quantum/keyboard.o
                0x0000000000001ed4                keyboard_post_init_kb
 .text.keyboard_pre_init_user
                0x0000000000001eda        0x6 .build/obj_kinesis_nguyenvietyen_kinesismod/quantum/keyboard.o
                0x0000000000001eda                keyboard_pre_init_user
 .text.keyboard_pre_init_kb
                0x0000000000001ee0        0x6 .build/obj_kinesis_nguyenvietyen_kinesismod/quantum/keyboard.o
                0x0000000000001ee0                keyboard_pre_init_kb
 .text.matrix_setup
                0x0000000000001ee6        0x6 .build/obj_kinesis_nguyenvietyen_kinesismod/quantum/keyboard.o
                0x0000000000001ee6                matrix_setup
 .text.keyboard_setup
                0x0000000000001eec       0x12 .build/obj_kinesis_nguyenvietyen_kinesismod/quantum/keyboard.o
                0x0000000000001eec                keyboard_setup
 .text.housekeeping_task
                0x0000000000001efe        0xa .build/obj_kinesis_nguyenvietyen_kinesismod/quantum/keyboard.o
                0x0000000000001efe                housekeeping_task
 .text.quantum_init
                0x0000000000001f08       0x38 .build/obj_kinesis_nguyenvietyen_kinesismod/quantum/keyboard.o
                0x0000000000001f08                quantum_init
 .text.keyboard_init
                0x0000000000001f40       0x1a .build/obj_kinesis_nguyenvietyen_kinesismod/quantum/keyboard.o
                0x0000000000001f40                keyboard_init
 .text.keyboard_task
                0x0000000000001f5a       0xd4 .build/obj_kinesis_nguyenvietyen_kinesismod/quantum/keyboard.o
                0x0000000000001f5a                keyboard_task
 .text.action_for_keycode
                0x000000000000202e      0x23a .build/obj_kinesis_nguyenvietyen_kinesismod/quantum/keymap_common.o
                0x000000000000202e                action_for_keycode
 .text.keymap_key_to_keycode
                0x0000000000002268       0x18 .build/obj_kinesis_nguyenvietyen_kinesismod/quantum/keymap_common.o
                0x0000000000002268                keymap_key_to_keycode
 .text.action_for_key
                0x0000000000002280        0xa .build/obj_kinesis_nguyenvietyen_kinesismod/quantum/keymap_common.o
                0x0000000000002280                action_for_key
 .text.keycode_config
                0x000000000000228a      0x138 .build/obj_kinesis_nguyenvietyen_kinesismod/quantum/keycode_config.o
                0x000000000000228a                keycode_config
 .text.mod_config
                0x00000000000023c2       0x9e .build/obj_kinesis_nguyenvietyen_kinesismod/quantum/keycode_config.o
                0x00000000000023c2                mod_config
 .text.sendchar
                0x0000000000002460        0x4 .build/obj_kinesis_nguyenvietyen_kinesismod/quantum/logging/sendchar.o
                0x0000000000002460                sendchar
 .text.matrix_get_row
                0x0000000000002464        0xc .build/obj_kinesis_nguyenvietyen_kinesismod/quantum/matrix_common.o
                0x0000000000002464                matrix_get_row
 .text.matrix_print
                0x0000000000002470        0x2 .build/obj_kinesis_nguyenvietyen_kinesismod/quantum/matrix_common.o
                0x0000000000002470                matrix_print
 .text.matrix_io_delay
                0x0000000000002472        0x8 .build/obj_kinesis_nguyenvietyen_kinesismod/quantum/matrix_common.o
                0x0000000000002472                matrix_io_delay
 .text.matrix_init_custom
                0x000000000000247a        0x2 .build/obj_kinesis_nguyenvietyen_kinesismod/quantum/matrix_common.o
 .text.matrix_scan_user
                0x000000000000247c        0x6 .build/obj_kinesis_nguyenvietyen_kinesismod/quantum/matrix_common.o
                0x000000000000247c                matrix_scan_user
 .text.matrix_scan_kb
                0x0000000000002482        0x6 .build/obj_kinesis_nguyenvietyen_kinesismod/quantum/matrix_common.o
                0x0000000000002482                matrix_scan_kb
 .text.matrix_init_user
                0x0000000000002488        0x6 .build/obj_kinesis_nguyenvietyen_kinesismod/quantum/matrix_common.o
                0x0000000000002488                matrix_init_user
 .text.matrix_init_kb
                0x000000000000248e        0x6 .build/obj_kinesis_nguyenvietyen_kinesismod/quantum/matrix_common.o
                0x000000000000248e                matrix_init_kb
 .text.matrix_init
                0x0000000000002494       0x24 .build/obj_kinesis_nguyenvietyen_kinesismod/quantum/matrix_common.o
                0x0000000000002494                matrix_init
 .text.matrix_scan
                0x00000000000024b8       0x26 .build/obj_kinesis_nguyenvietyen_kinesismod/quantum/matrix_common.o
                0x00000000000024b8                matrix_scan
 .text.debounce_init
                0x00000000000024de        0x2 .build/obj_kinesis_nguyenvietyen_kinesismod/quantum/debounce/sym_defer_g.o
                0x00000000000024de                debounce_init
 .text.debounce
                0x00000000000024e0       0x74 .build/obj_kinesis_nguyenvietyen_kinesismod/quantum/debounce/sym_defer_g.o
                0x00000000000024e0                debounce
 .text.protocol_keyboard_task
                0x0000000000002554        0x6 .build/obj_kinesis_nguyenvietyen_kinesismod/quantum/main.o
                0x0000000000002554                protocol_keyboard_task
 .text.startup.main
                0x000000000000255a       0x2a .build/obj_kinesis_nguyenvietyen_kinesismod/quantum/main.o
                0x000000000000255a                main
 .text.print_set_sendchar
                0x0000000000002584        0xa .build/obj_kinesis_nguyenvietyen_kinesismod/platforms/avr/printf.o
                0x0000000000002584                print_set_sendchar
 .text.sleep_led_init
                0x000000000000258e       0x24 .build/obj_kinesis_nguyenvietyen_kinesismod/platforms/avr/sleep_led.o
                0x000000000000258e                sleep_led_init
 .text.sleep_led_enable
                0x00000000000025b2        0xc .build/obj_kinesis_nguyenvietyen_kinesismod/platforms/avr/sleep_led.o
                0x00000000000025b2                sleep_led_enable
 .text.sleep_led_disable
                0x00000000000025be        0xc .build/obj_kinesis_nguyenvietyen_kinesismod/platforms/avr/sleep_led.o
                0x00000000000025be                sleep_led_disable
 .text.__vector_17
                0x00000000000025ca       0x8e .build/obj_kinesis_nguyenvietyen_kinesismod/platforms/avr/sleep_led.o
                0x00000000000025ca                __vector_17
 .text.process_caps_word
                0x0000000000002658      0x128 .build/obj_kinesis_nguyenvietyen_kinesismod/quantum/process_keycode/process_caps_word.o
                0x0000000000002658                process_caps_word
 .text.caps_word_reset_idle_timer
                0x0000000000002780       0x12 .build/obj_kinesis_nguyenvietyen_kinesismod/quantum/caps_word.o
                0x0000000000002780                caps_word_reset_idle_timer
 .text.is_caps_word_on
                0x0000000000002792        0x6 .build/obj_kinesis_nguyenvietyen_kinesismod/quantum/caps_word.o
                0x0000000000002792                is_caps_word_on
 .text.caps_word_set_user
                0x0000000000002798        0x2 .build/obj_kinesis_nguyenvietyen_kinesismod/quantum/caps_word.o
                0x0000000000002798                caps_word_set_user
 .text.caps_word_on
                0x000000000000279a       0x20 .build/obj_kinesis_nguyenvietyen_kinesismod/quantum/caps_word.o
                0x000000000000279a                caps_word_on
 .text.caps_word_off
                0x00000000000027ba       0x1a .build/obj_kinesis_nguyenvietyen_kinesismod/quantum/caps_word.o
                0x00000000000027ba                caps_word_off
 .text.caps_word_task
                0x00000000000027d4       0x24 .build/obj_kinesis_nguyenvietyen_kinesismod/quantum/caps_word.o
                0x00000000000027d4                caps_word_task
 .text.caps_word_toggle
                0x00000000000027f8       0x14 .build/obj_kinesis_nguyenvietyen_kinesismod/quantum/caps_word.o
                0x00000000000027f8                caps_word_toggle
 .text.process_grave_esc
                0x000000000000280c       0x54 .build/obj_kinesis_nguyenvietyen_kinesismod/quantum/process_keycode/process_grave_esc.o
                0x000000000000280c                process_grave_esc
 .text.process_magic
                0x0000000000002860      0x1d4 .build/obj_kinesis_nguyenvietyen_kinesismod/quantum/process_keycode/process_magic.o
                0x0000000000002860                process_magic
 .text.times_inv_sqrt2
                0x0000000000002a34       0x1c .build/obj_kinesis_nguyenvietyen_kinesismod/quantum/mousekey.o
 .text.move_unit
                0x0000000000002a50       0x7e .build/obj_kinesis_nguyenvietyen_kinesismod/quantum/mousekey.o
 .text.wheel_unit
                0x0000000000002ace       0x72 .build/obj_kinesis_nguyenvietyen_kinesismod/quantum/mousekey.o
 .text.mousekey_on
                0x0000000000002b40       0xb6 .build/obj_kinesis_nguyenvietyen_kinesismod/quantum/mousekey.o
                0x0000000000002b40                mousekey_on
 .text.mousekey_off
                0x0000000000002bf6       0xee .build/obj_kinesis_nguyenvietyen_kinesismod/quantum/mousekey.o
                0x0000000000002bf6                mousekey_off
 .text.mousekey_send
                0x0000000000002ce4       0x3e .build/obj_kinesis_nguyenvietyen_kinesismod/quantum/mousekey.o
                0x0000000000002ce4                mousekey_send
 .text.mousekey_clear
                0x0000000000002d22       0x1c .build/obj_kinesis_nguyenvietyen_kinesismod/quantum/mousekey.o
                0x0000000000002d22                mousekey_clear
 .text.should_mousekey_report_send
                0x0000000000002d3e       0x28 .build/obj_kinesis_nguyenvietyen_kinesismod/quantum/mousekey.o
                0x0000000000002d3e                should_mousekey_report_send
 .text.mousekey_task
                0x0000000000002d66      0x1dc .build/obj_kinesis_nguyenvietyen_kinesismod/quantum/mousekey.o
                0x0000000000002d66                mousekey_task
 .text.perform_space_cadet
                0x0000000000002f42       0xd2 .build/obj_kinesis_nguyenvietyen_kinesismod/quantum/process_keycode/process_space_cadet.o
                0x0000000000002f42                perform_space_cadet
 .text.process_space_cadet
                0x0000000000003014       0x86 .build/obj_kinesis_nguyenvietyen_kinesismod/quantum/process_keycode/process_space_cadet.o
                0x0000000000003014                process_space_cadet
 .text.host_set_driver
                0x000000000000309a        0xa .build/obj_kinesis_nguyenvietyen_kinesismod/protocol/host.o
                0x000000000000309a                host_set_driver
 .text.host_keyboard_leds
                0x00000000000030a4       0x1a .build/obj_kinesis_nguyenvietyen_kinesismod/protocol/host.o
                0x00000000000030a4                host_keyboard_leds
 .text.host_keyboard_led_state
                0x00000000000030be        0x6 .build/obj_kinesis_nguyenvietyen_kinesismod/protocol/host.o
                0x00000000000030be                host_keyboard_led_state
 .text.host_keyboard_send
                0x00000000000030c4       0x16 .build/obj_kinesis_nguyenvietyen_kinesismod/protocol/host.o
                0x00000000000030c4                host_keyboard_send
 .text.host_nkro_send
                0x00000000000030da       0x1c .build/obj_kinesis_nguyenvietyen_kinesismod/protocol/host.o
                0x00000000000030da                host_nkro_send
 .text.host_mouse_send
                0x00000000000030f6       0x1c .build/obj_kinesis_nguyenvietyen_kinesismod/protocol/host.o
                0x00000000000030f6                host_mouse_send
 .text.host_system_send
                0x0000000000003112       0x4a .build/obj_kinesis_nguyenvietyen_kinesismod/protocol/host.o
                0x0000000000003112                host_system_send
 .text.host_consumer_send
                0x000000000000315c       0x4a .build/obj_kinesis_nguyenvietyen_kinesismod/protocol/host.o
                0x000000000000315c                host_consumer_send
 .text.has_anykey
                0x00000000000031a6       0x3c .build/obj_kinesis_nguyenvietyen_kinesismod/protocol/report.o
                0x00000000000031a6                has_anykey
 .text.is_key_pressed
                0x00000000000031e2       0x72 .build/obj_kinesis_nguyenvietyen_kinesismod/protocol/report.o
                0x00000000000031e2                is_key_pressed
 .text.add_key_byte
                0x0000000000003254       0x34 .build/obj_kinesis_nguyenvietyen_kinesismod/protocol/report.o
                0x0000000000003254                add_key_byte
 .text.del_key_byte
                0x0000000000003288       0x1a .build/obj_kinesis_nguyenvietyen_kinesismod/protocol/report.o
                0x0000000000003288                del_key_byte
 .text.add_key_bit
                0x00000000000032a2       0x28 .build/obj_kinesis_nguyenvietyen_kinesismod/protocol/report.o
                0x00000000000032a2                add_key_bit
 .text.del_key_bit
                0x00000000000032ca       0x2a .build/obj_kinesis_nguyenvietyen_kinesismod/protocol/report.o
                0x00000000000032ca                del_key_bit
 .text.add_key_to_report
                0x00000000000032f4       0x2e .build/obj_kinesis_nguyenvietyen_kinesismod/protocol/report.o
                0x00000000000032f4                add_key_to_report
 .text.del_key_from_report
                0x0000000000003322       0x2e .build/obj_kinesis_nguyenvietyen_kinesismod/protocol/report.o
                0x0000000000003322                del_key_from_report
 .text.clear_keys_from_report
                0x0000000000003350       0x34 .build/obj_kinesis_nguyenvietyen_kinesismod/protocol/report.o
                0x0000000000003350                clear_keys_from_report
 .text.has_mouse_report_changed
                0x0000000000003384       0x5c .build/obj_kinesis_nguyenvietyen_kinesismod/protocol/report.o
                0x0000000000003384                has_mouse_report_changed
 .text.notify_usb_device_state_change_user
                0x00000000000033e0        0x2 .build/obj_kinesis_nguyenvietyen_kinesismod/protocol/usb_device_state.o
                0x00000000000033e0                notify_usb_device_state_change_user
 .text.notify_usb_device_state_change_kb
                0x00000000000033e2        0x6 .build/obj_kinesis_nguyenvietyen_kinesismod/protocol/usb_device_state.o
                0x00000000000033e2                notify_usb_device_state_change_kb
 .text.usb_device_state_set_suspend
                0x00000000000033e8        0xc .build/obj_kinesis_nguyenvietyen_kinesismod/protocol/usb_device_state.o
                0x00000000000033e8                usb_device_state_set_suspend
 .text.usb_device_state_set_resume
                0x00000000000033f4       0x14 .build/obj_kinesis_nguyenvietyen_kinesismod/protocol/usb_device_state.o
                0x00000000000033f4                usb_device_state_set_resume
 .text.usb_device_state_set_configuration
                0x0000000000003408        0x6 .build/obj_kinesis_nguyenvietyen_kinesismod/protocol/usb_device_state.o
                0x0000000000003408                usb_device_state_set_configuration
 .text.usb_device_state_init
                0x000000000000340e        0xc .build/obj_kinesis_nguyenvietyen_kinesismod/protocol/usb_device_state.o
                0x000000000000340e                usb_device_state_init
 .text.usb_device_state_set_reset
                0x000000000000341a        0x6 .build/obj_kinesis_nguyenvietyen_kinesismod/protocol/usb_device_state.o
                0x000000000000341a                usb_device_state_set_reset
 .text.suspend_wakeup_init_user
                0x0000000000003420        0x2 .build/obj_kinesis_nguyenvietyen_kinesismod/platforms/suspend.o
                0x0000000000003420                suspend_wakeup_init_user
 .text.suspend_power_down_user
                0x0000000000003422        0x6 .build/obj_kinesis_nguyenvietyen_kinesismod/platforms/suspend.o
                0x0000000000003422                suspend_power_down_user
 .text.suspend_power_down_kb
                0x0000000000003428        0x6 .build/obj_kinesis_nguyenvietyen_kinesismod/platforms/suspend.o
                0x0000000000003428                suspend_power_down_kb
 .text.matrix_power_down
                0x000000000000342e        0x6 .build/obj_kinesis_nguyenvietyen_kinesismod/platforms/suspend.o
                0x000000000000342e                matrix_power_down
 .text.matrix_power_up
                0x0000000000003434        0x6 .build/obj_kinesis_nguyenvietyen_kinesismod/platforms/suspend.o
                0x0000000000003434                matrix_power_up
 .text.suspend_wakeup_init_kb
                0x000000000000343a        0x6 .build/obj_kinesis_nguyenvietyen_kinesismod/platforms/suspend.o
                0x000000000000343a                suspend_wakeup_init_kb
 .text.suspend_wakeup_condition
                0x0000000000003440       0x28 .build/obj_kinesis_nguyenvietyen_kinesismod/platforms/suspend.o
                0x0000000000003440                suspend_wakeup_condition
 .text.platform_setup
                0x0000000000003468        0xe .build/obj_kinesis_nguyenvietyen_kinesismod/platforms/avr/platform.o
                0x0000000000003468                platform_setup
 .text.suspend_power_down
                0x0000000000003476        0xe .build/obj_kinesis_nguyenvietyen_kinesismod/platforms/avr/suspend.o
                0x0000000000003476                suspend_power_down
 .text.suspend_wakeup_init
                0x0000000000003484        0xa .build/obj_kinesis_nguyenvietyen_kinesismod/platforms/avr/suspend.o
                0x0000000000003484                suspend_wakeup_init
 .text.timer_init
                0x000000000000348e       0x12 .build/obj_kinesis_nguyenvietyen_kinesismod/platforms/avr/timer.o
                0x000000000000348e                timer_init
 .text.timer_read
                0x00000000000034a0       0x18 .build/obj_kinesis_nguyenvietyen_kinesismod/platforms/avr/timer.o
                0x00000000000034a0                timer_read
 .text.timer_read32
                0x00000000000034b8       0x18 .build/obj_kinesis_nguyenvietyen_kinesismod/platforms/avr/timer.o
                0x00000000000034b8                timer_read32
 .text.timer_elapsed
                0x00000000000034d0       0x1e .build/obj_kinesis_nguyenvietyen_kinesismod/platforms/avr/timer.o
                0x00000000000034d0                timer_elapsed
 .text.__vector_21
                0x00000000000034ee       0x4c .build/obj_kinesis_nguyenvietyen_kinesismod/platforms/avr/timer.o
                0x00000000000034ee                __vector_21
 .text.bootloader_jump
                0x000000000000353a       0x22 .build/obj_kinesis_nguyenvietyen_kinesismod/platforms/avr/bootloaders/caterina.o
                0x000000000000353a                bootloader_jump
 .text.mcu_reset
                0x000000000000355c       0x16 .build/obj_kinesis_nguyenvietyen_kinesismod/platforms/avr/bootloaders/caterina.o
                0x000000000000355c                mcu_reset
 .text.keyboard_leds
                0x0000000000003572        0x6 .build/obj_kinesis_nguyenvietyen_kinesismod/lufa.o
 .text.send_report
                0x0000000000003578       0x48 .build/obj_kinesis_nguyenvietyen_kinesismod/lufa.o
                0x0000000000003578                send_report
 .text.send_extra
                0x00000000000035c0        0xe .build/obj_kinesis_nguyenvietyen_kinesismod/lufa.o
 .text.send_mouse
                0x00000000000035ce        0xe .build/obj_kinesis_nguyenvietyen_kinesismod/lufa.o
 .text.send_nkro
                0x00000000000035dc        0xe .build/obj_kinesis_nguyenvietyen_kinesismod/lufa.o
 .text.send_keyboard
                0x00000000000035ea       0x28 .build/obj_kinesis_nguyenvietyen_kinesismod/lufa.o
 .text.EVENT_USB_Device_Connect
                0x0000000000003612       0x1c .build/obj_kinesis_nguyenvietyen_kinesismod/lufa.o
                0x0000000000003612                EVENT_USB_Device_Connect
 .text.EVENT_USB_Device_Disconnect
                0x000000000000362e        0x6 .build/obj_kinesis_nguyenvietyen_kinesismod/lufa.o
                0x000000000000362e                EVENT_USB_Device_Disconnect
 .text.EVENT_USB_Device_Reset
                0x0000000000003634        0x6 .build/obj_kinesis_nguyenvietyen_kinesismod/lufa.o
                0x0000000000003634                EVENT_USB_Device_Reset
 .text.EVENT_USB_Device_Suspend
                0x000000000000363a       0x16 .build/obj_kinesis_nguyenvietyen_kinesismod/lufa.o
                0x000000000000363a                EVENT_USB_Device_Suspend
 .text.EVENT_USB_Device_WakeUp
                0x0000000000003650       0x22 .build/obj_kinesis_nguyenvietyen_kinesismod/lufa.o
                0x0000000000003650                EVENT_USB_Device_WakeUp
 .text.EVENT_USB_Device_ConfigurationChanged
                0x0000000000003672       0x2a .build/obj_kinesis_nguyenvietyen_kinesismod/lufa.o
                0x0000000000003672                EVENT_USB_Device_ConfigurationChanged
 .text.EVENT_USB_Device_ControlRequest
                0x000000000000369c      0x17e .build/obj_kinesis_nguyenvietyen_kinesismod/lufa.o
                0x000000000000369c                EVENT_USB_Device_ControlRequest
 .text.protocol_setup
                0x000000000000381a       0x34 .build/obj_kinesis_nguyenvietyen_kinesismod/lufa.o
                0x000000000000381a                protocol_setup
 .text.protocol_pre_init
                0x000000000000384e       0x1a .build/obj_kinesis_nguyenvietyen_kinesismod/lufa.o
                0x000000000000384e                protocol_pre_init
 .text.protocol_post_init
                0x0000000000003868        0xa .build/obj_kinesis_nguyenvietyen_kinesismod/lufa.o
                0x0000000000003868                protocol_post_init
 .text.protocol_pre_task
                0x0000000000003872       0x34 .build/obj_kinesis_nguyenvietyen_kinesismod/lufa.o
                0x0000000000003872                protocol_pre_task
 .text.protocol_post_task
                0x00000000000038a6        0x2 .build/obj_kinesis_nguyenvietyen_kinesismod/lufa.o
                0x00000000000038a6                protocol_post_task
 .text.CALLBACK_USB_GetDescriptor
                0x00000000000038a8       0x10 .build/obj_kinesis_nguyenvietyen_kinesismod/lufa.o
                0x00000000000038a8                CALLBACK_USB_GetDescriptor
 .text.get_usb_descriptor
                0x00000000000038b8       0xb2 .build/obj_kinesis_nguyenvietyen_kinesismod/usb_descriptor.o
                0x00000000000038b8                get_usb_descriptor
 .text.USB_Device_SendRemoteWakeup
                0x000000000000396a       0x2c .build/obj_kinesis_nguyenvietyen_kinesismod/lib/lufa/LUFA/Drivers/USB/Core/AVR8/Device_AVR8.o
                0x000000000000396a                USB_Device_SendRemoteWakeup
 .text.Endpoint_Write_Stream_LE
                0x0000000000003996       0x8a .build/obj_kinesis_nguyenvietyen_kinesismod/lib/lufa/LUFA/Drivers/USB/Core/AVR8/EndpointStream_AVR8.o
                0x0000000000003996                Endpoint_Write_Stream_LE
 .text.Endpoint_Write_Control_Stream_LE
                0x0000000000003a20       0xbc .build/obj_kinesis_nguyenvietyen_kinesismod/lib/lufa/LUFA/Drivers/USB/Core/AVR8/EndpointStream_AVR8.o
                0x0000000000003a20                Endpoint_Write_Control_Stream_LE
 .text.Endpoint_Write_Control_PStream_LE
                0x0000000000003adc       0xc2 .build/obj_kinesis_nguyenvietyen_kinesismod/lib/lufa/LUFA/Drivers/USB/Core/AVR8/EndpointStream_AVR8.o
                0x0000000000003adc                Endpoint_Write_Control_PStream_LE
 .text.Endpoint_ConfigureEndpoint_Prv
                0x0000000000003b9e       0x6a .build/obj_kinesis_nguyenvietyen_kinesismod/lib/lufa/LUFA/Drivers/USB/Core/AVR8/Endpoint_AVR8.o
                0x0000000000003b9e                Endpoint_ConfigureEndpoint_Prv
 .text.Endpoint_ClearStatusStage
                0x0000000000003c08       0x3e .build/obj_kinesis_nguyenvietyen_kinesismod/lib/lufa/LUFA/Drivers/USB/Core/AVR8/Endpoint_AVR8.o
                0x0000000000003c08                Endpoint_ClearStatusStage
 .text.Endpoint_WaitUntilReady
                0x0000000000003c46       0x66 .build/obj_kinesis_nguyenvietyen_kinesismod/lib/lufa/LUFA/Drivers/USB/Core/AVR8/Endpoint_AVR8.o
                0x0000000000003c46                Endpoint_WaitUntilReady
 .text.USB_Disable
                0x0000000000003cac       0x34 .build/obj_kinesis_nguyenvietyen_kinesismod/lib/lufa/LUFA/Drivers/USB/Core/AVR8/USBController_AVR8.o
                0x0000000000003cac                USB_Disable
 .text.USB_ResetInterface
                0x0000000000003ce0       0x86 .build/obj_kinesis_nguyenvietyen_kinesismod/lib/lufa/LUFA/Drivers/USB/Core/AVR8/USBController_AVR8.o
                0x0000000000003ce0                USB_ResetInterface
 .text.USB_Init
                0x0000000000003d66       0x24 .build/obj_kinesis_nguyenvietyen_kinesismod/lib/lufa/LUFA/Drivers/USB/Core/AVR8/USBController_AVR8.o
                0x0000000000003d66                USB_Init
 .text.USB_INT_DisableAllInterrupts
                0x0000000000003d8a       0x10 .build/obj_kinesis_nguyenvietyen_kinesismod/lib/lufa/LUFA/Drivers/USB/Core/AVR8/USBInterrupt_AVR8.o
                0x0000000000003d8a                USB_INT_DisableAllInterrupts
 .text.USB_INT_ClearAllInterrupts
                0x0000000000003d9a        0xa .build/obj_kinesis_nguyenvietyen_kinesismod/lib/lufa/LUFA/Drivers/USB/Core/AVR8/USBInterrupt_AVR8.o
                0x0000000000003d9a                USB_INT_ClearAllInterrupts
 .text.__vector_10
                0x0000000000003da4      0x1a4 .build/obj_kinesis_nguyenvietyen_kinesismod/lib/lufa/LUFA/Drivers/USB/Core/AVR8/USBInterrupt_AVR8.o
                0x0000000000003da4                __vector_10
 .text.__vector_11
                0x0000000000003f48       0x88 .build/obj_kinesis_nguyenvietyen_kinesismod/lib/lufa/LUFA/Drivers/USB/Core/AVR8/USBInterrupt_AVR8.o
                0x0000000000003f48                __vector_11
 .text.USB_Device_ProcessControlRequest
                0x0000000000003fd0      0x2aa .build/obj_kinesis_nguyenvietyen_kinesismod/lib/lufa/LUFA/Drivers/USB/Core/DeviceStandardReq.o
                0x0000000000003fd0                USB_Device_ProcessControlRequest
 .text.USB_Event_Stub
                0x000000000000427a        0x2 .build/obj_kinesis_nguyenvietyen_kinesismod/lib/lufa/LUFA/Drivers/USB/Core/Events.o
                0x000000000000427a                USB_Event_Stub
                0x000000000000427a                EVENT_USB_Device_StartOfFrame
 .text.USB_USBTask
                0x000000000000427c       0x36 .build/obj_kinesis_nguyenvietyen_kinesismod/lib/lufa/LUFA/Drivers/USB/Core/USBTask.o
                0x000000000000427c                USB_USBTask
 .text.libgcc.div
                0x00000000000042b2       0x28 /usr/lib/gcc/avr/5.4.0/avr5/libgcc.a(_divmodhi4.o)
                0x00000000000042b2                __divmodhi4
                0x00000000000042b2                _div
 .text.libgcc   0x00000000000042da        0xc /usr/lib/gcc/avr/5.4.0/avr5/libgcc.a(_tablejump2.o)
                0x00000000000042da                __tablejump2__
 .text.libgcc.prologue
                0x00000000000042e6       0x38 /usr/lib/gcc/avr/5.4.0/avr5/libgcc.a(_prologue.o)
                0x00000000000042e6                __prologue_saves__
 .text.libgcc.prologue
                0x000000000000431e       0x36 /usr/lib/gcc/avr/5.4.0/avr5/libgcc.a(_epilogue.o)
                0x000000000000431e                __epilogue_restores__
 .text.libgcc.div
                0x0000000000004354       0x28 /usr/lib/gcc/avr/5.4.0/avr5/libgcc.a(_udivmodhi4.o)
                0x0000000000004354                __udivmodhi4
 .text.avr-libc
                0x000000000000437c       0x1a /usr/lib/gcc/avr/5.4.0/../../../avr/lib/avr5/libc.a(memcmp.o)
                0x000000000000437c                memcmp
 .text.avr-libc
                0x0000000000004396       0x12 /usr/lib/gcc/avr/5.4.0/../../../avr/lib/avr5/libc.a(memcpy.o)
                0x0000000000004396                memcpy
 .text.avr-libc
                0x00000000000043a8       0x10 /usr/lib/gcc/avr/5.4.0/../../../avr/lib/avr5/libatmega32u4.a(eerd_byte.o)
                0x00000000000043a8                eeprom_read_byte
 .text.avr-libc
                0x00000000000043b8        0xc /usr/lib/gcc/avr/5.4.0/../../../avr/lib/avr5/libatmega32u4.a(eerd_word.o)
                0x00000000000043b8                eeprom_read_word
 .text.avr-libc
                0x00000000000043c4       0x20 /usr/lib/gcc/avr/5.4.0/../../../avr/lib/avr5/libatmega32u4.a(eeupd_block.o)
                0x00000000000043c4                eeprom_update_block
 .text.avr-libc
                0x00000000000043e4       0x24 /usr/lib/gcc/avr/5.4.0/../../../avr/lib/avr5/libatmega32u4.a(eeupd_byte.o)
                0x00000000000043e4                eeprom_update_byte
                0x00000000000043e6                eeprom_update_r18
 .text.avr-libc
                0x0000000000004408       0x18 /usr/lib/gcc/avr/5.4.0/../../../avr/lib/avr5/libatmega32u4.a(eeupd_dword.o)
                0x0000000000004408                eeprom_update_dword
                0x0000000000004408                eeprom_update_float
 .text.avr-libc
                0x0000000000004420        0xc /usr/lib/gcc/avr/5.4.0/../../../avr/lib/avr5/libatmega32u4.a(eeupd_word.o)
                0x0000000000004420                eeprom_update_word
 .text.avr-libc
                0x000000000000442c       0x20 /usr/lib/gcc/avr/5.4.0/../../../avr/lib/avr5/libatmega32u4.a(eerd_block.o)
                0x000000000000442c                eeprom_read_block
                0x0000000000004430                eeprom_read_blraw
                0x000000000000444c                . = ALIGN (0x2)
 *(.fini9)
 .fini9         0x000000000000444c        0x0 /usr/lib/gcc/avr/5.4.0/avr5/libgcc.a(_exit.o)
                0x000000000000444c                exit
                0x000000000000444c                _exit
 *(.fini9)
 *(.fini8)
 *(.fini8)
 *(.fini7)
 *(.fini7)
 *(.fini6)
 *(.fini6)
 *(.fini5)
 *(.fini5)
 *(.fini4)
 *(.fini4)
 *(.fini3)
 *(.fini3)
 *(.fini2)
 *(.fini2)
 *(.fini1)
 *(.fini1)
 *(.fini0)
 .fini0         0x000000000000444c        0x4 /usr/lib/gcc/avr/5.4.0/avr5/libgcc.a(_exit.o)
 *(.fini0)
                0x0000000000004450                _etext = .

.data           0x0000000000800100       0x8a load address 0x0000000000004450
                0x0000000000800100                PROVIDE (__data_start, .)
 *(.data)
 *(.data*)
 .data.nkro_report
                0x0000000000800100        0x2 .build/obj_kinesis_nguyenvietyen_kinesismod/quantum/action_util.o
                0x0000000000800100                nkro_report
 .data.keyboard_report
                0x0000000000800102        0x2 .build/obj_kinesis_nguyenvietyen_kinesismod/quantum/action_util.o
                0x0000000000800102                keyboard_report
 .data.mk_wheel_time_to_max
                0x0000000000800104        0x1 .build/obj_kinesis_nguyenvietyen_kinesismod/quantum/mousekey.o
                0x0000000000800104                mk_wheel_time_to_max
 .data.mk_wheel_max_speed
                0x0000000000800105        0x1 .build/obj_kinesis_nguyenvietyen_kinesismod/quantum/mousekey.o
                0x0000000000800105                mk_wheel_max_speed
 .data.mk_wheel_interval
                0x0000000000800106        0x1 .build/obj_kinesis_nguyenvietyen_kinesismod/quantum/mousekey.o
                0x0000000000800106                mk_wheel_interval
 .data.mk_wheel_delay
                0x0000000000800107        0x1 .build/obj_kinesis_nguyenvietyen_kinesismod/quantum/mousekey.o
                0x0000000000800107                mk_wheel_delay
 .data.mk_time_to_max
                0x0000000000800108        0x1 .build/obj_kinesis_nguyenvietyen_kinesismod/quantum/mousekey.o
                0x0000000000800108                mk_time_to_max
 .data.mk_max_speed
                0x0000000000800109        0x1 .build/obj_kinesis_nguyenvietyen_kinesismod/quantum/mousekey.o
                0x0000000000800109                mk_max_speed
 .data.mk_interval
                0x000000000080010a        0x1 .build/obj_kinesis_nguyenvietyen_kinesismod/quantum/mousekey.o
                0x000000000080010a                mk_interval
 .data.mk_delay
                0x000000000080010b        0x1 .build/obj_kinesis_nguyenvietyen_kinesismod/quantum/mousekey.o
                0x000000000080010b                mk_delay
 .data.lufa_driver
                0x000000000080010c        0xa .build/obj_kinesis_nguyenvietyen_kinesismod/lufa.o
                0x000000000080010c                lufa_driver
 .data.keyboard_protocol
                0x0000000000800116        0x1 .build/obj_kinesis_nguyenvietyen_kinesismod/lufa.o
                0x0000000000800116                keyboard_protocol
 *(.gnu.linkonce.d*)
 *(.rodata)
 *(.rodata*)
 .rodata.CSWTCH.11
                0x0000000000800117       0x36 .build/obj_kinesis_nguyenvietyen_kinesismod/quantum/action.o
 .rodata.CSWTCH.9
                0x000000000080014d        0x3 .build/obj_kinesis_nguyenvietyen_kinesismod/quantum/action.o
 .rodata.CSWTCH.4
                0x0000000000800150       0x36 .build/obj_kinesis_nguyenvietyen_kinesismod/quantum/keymap_common.o
 .rodata.CSWTCH.2
                0x0000000000800186        0x3 .build/obj_kinesis_nguyenvietyen_kinesismod/quantum/keymap_common.o
 *(.gnu.linkonce.r*)
                0x000000000080018a                . = ALIGN (0x2)
 *fill*         0x0000000000800189        0x1 
                0x000000000080018a                _edata = .
                0x000000000080018a                PROVIDE (__data_end, .)

.bss            0x000000000080018a      0x15b
                0x000000000080018a                PROVIDE (__bss_start, .)
 *(.bss)
 .bss           0x000000000080018a        0x2 .build/obj_kinesis_nguyenvietyen_kinesismod/platforms/avr/xprintf.o
                0x000000000080018a                xfunc_out
 *(.bss*)
 .bss.last_led_status.3712
                0x000000000080018c        0x1 .build/obj_kinesis_nguyenvietyen_kinesismod/quantum/led.o
 .bss.last_led_modification_time
                0x000000000080018d        0x4 .build/obj_kinesis_nguyenvietyen_kinesismod/quantum/led.o
 .bss.disable_action_cache
                0x0000000000800191        0x1 .build/obj_kinesis_nguyenvietyen_kinesismod/quantum/action.o
                0x0000000000800191                disable_action_cache
 .bss.source_layers_cache
                0x0000000000800192       0x40 .build/obj_kinesis_nguyenvietyen_kinesismod/quantum/action_layer.o
                0x0000000000800192                source_layers_cache
 .bss.layer_state
                0x00000000008001d2        0x2 .build/obj_kinesis_nguyenvietyen_kinesismod/quantum/action_layer.o
                0x00000000008001d2                layer_state
 .bss.default_layer_state
                0x00000000008001d4        0x2 .build/obj_kinesis_nguyenvietyen_kinesismod/quantum/action_layer.o
                0x00000000008001d4                default_layer_state
 .bss.waiting_buffer_tail
                0x00000000008001d6        0x1 .build/obj_kinesis_nguyenvietyen_kinesismod/quantum/action_tapping.o
 .bss.waiting_buffer_head
                0x00000000008001d7        0x1 .build/obj_kinesis_nguyenvietyen_kinesismod/quantum/action_tapping.o
 .bss.waiting_buffer
                0x00000000008001d8       0x38 .build/obj_kinesis_nguyenvietyen_kinesismod/quantum/action_tapping.o
 .bss.tapping_key
                0x0000000000800210        0x7 .build/obj_kinesis_nguyenvietyen_kinesismod/quantum/action_tapping.o
 .bss.last_report.4436
                0x0000000000800217       0x20 .build/obj_kinesis_nguyenvietyen_kinesismod/quantum/action_util.o
 .bss.last_report.4432
                0x0000000000800237        0x8 .build/obj_kinesis_nguyenvietyen_kinesismod/quantum/action_util.o
 .bss.oneshot_layer_data
                0x000000000080023f        0x1 .build/obj_kinesis_nguyenvietyen_kinesismod/quantum/action_util.o
 .bss.oneshot_locked_mods
                0x0000000000800240        0x1 .build/obj_kinesis_nguyenvietyen_kinesismod/quantum/action_util.o
 .bss.oneshot_mods
                0x0000000000800241        0x1 .build/obj_kinesis_nguyenvietyen_kinesismod/quantum/action_util.o
 .bss.__compound_literal.1
                0x0000000000800242       0x20 .build/obj_kinesis_nguyenvietyen_kinesismod/quantum/action_util.o
 .bss.__compound_literal.0
                0x0000000000800262        0x8 .build/obj_kinesis_nguyenvietyen_kinesismod/quantum/action_util.o
 .bss.weak_mods
                0x000000000080026a        0x1 .build/obj_kinesis_nguyenvietyen_kinesismod/quantum/action_util.o
 .bss.real_mods
                0x000000000080026b        0x1 .build/obj_kinesis_nguyenvietyen_kinesismod/quantum/action_util.o
 .bss.last_tick.4326
                0x000000000080026c        0x2 .build/obj_kinesis_nguyenvietyen_kinesismod/quantum/keyboard.o
 .bss.matrix_previous.4333
                0x000000000080026e       0x10 .build/obj_kinesis_nguyenvietyen_kinesismod/quantum/keyboard.o
 .bss.last_matrix_modification_time
                0x000000000080027e        0x4 .build/obj_kinesis_nguyenvietyen_kinesismod/quantum/keyboard.o
 .bss.last_input_modification_time
                0x0000000000800282        0x4 .build/obj_kinesis_nguyenvietyen_kinesismod/quantum/keyboard.o
 .bss.debug_config
                0x0000000000800286        0x1 .build/obj_kinesis_nguyenvietyen_kinesismod/quantum/logging/debug.o
                0x0000000000800286                debug_config
 .bss.debouncing_time
                0x0000000000800287        0x2 .build/obj_kinesis_nguyenvietyen_kinesismod/quantum/debounce/sym_defer_g.o
 .bss.debouncing
                0x0000000000800289        0x1 .build/obj_kinesis_nguyenvietyen_kinesismod/quantum/debounce/sym_defer_g.o
 .bss.led_state.1827
                0x000000000080028a        0x1 .build/obj_kinesis_nguyenvietyen_kinesismod/platforms/avr/sleep_led.o
 .bss.timer.1826
                0x000000000080028b        0x2 .build/obj_kinesis_nguyenvietyen_kinesismod/platforms/avr/sleep_led.o
 .bss.idle_timer
                0x000000000080028d        0x2 .build/obj_kinesis_nguyenvietyen_kinesismod/quantum/caps_word.o
 .bss.caps_word_active
                0x000000000080028f        0x1 .build/obj_kinesis_nguyenvietyen_kinesismod/quantum/caps_word.o
 .bss.grave_esc_was_shifted
                0x0000000000800290        0x1 .build/obj_kinesis_nguyenvietyen_kinesismod/quantum/process_keycode/process_grave_esc.o
 .bss.last_timer_w
                0x0000000000800291        0x2 .build/obj_kinesis_nguyenvietyen_kinesismod/quantum/mousekey.o
 .bss.last_timer_c
                0x0000000000800293        0x2 .build/obj_kinesis_nguyenvietyen_kinesismod/quantum/mousekey.o
 .bss.mousekey_wheel_repeat
                0x0000000000800295        0x1 .build/obj_kinesis_nguyenvietyen_kinesismod/quantum/mousekey.o
 .bss.mousekey_repeat
                0x0000000000800296        0x1 .build/obj_kinesis_nguyenvietyen_kinesismod/quantum/mousekey.o
 .bss.mousekey_accel
                0x0000000000800297        0x1 .build/obj_kinesis_nguyenvietyen_kinesismod/quantum/mousekey.o
 .bss.mouse_report
                0x0000000000800298        0x6 .build/obj_kinesis_nguyenvietyen_kinesismod/quantum/mousekey.o
 .bss.sc_timer  0x000000000080029e        0x2 .build/obj_kinesis_nguyenvietyen_kinesismod/quantum/process_keycode/process_space_cadet.o
 .bss.sc_last   0x00000000008002a0        0x1 .build/obj_kinesis_nguyenvietyen_kinesismod/quantum/process_keycode/process_space_cadet.o
 .bss.last_consumer_usage
                0x00000000008002a1        0x2 .build/obj_kinesis_nguyenvietyen_kinesismod/protocol/host.o
 .bss.last_system_usage
                0x00000000008002a3        0x2 .build/obj_kinesis_nguyenvietyen_kinesismod/protocol/host.o
 .bss.driver    0x00000000008002a5        0x2 .build/obj_kinesis_nguyenvietyen_kinesismod/protocol/host.o
 .bss.usb_device_state
                0x00000000008002a7        0x1 .build/obj_kinesis_nguyenvietyen_kinesismod/protocol/usb_device_state.o
                0x00000000008002a7                usb_device_state
 .bss.keyboard_report_sent
                0x00000000008002a8        0x8 .build/obj_kinesis_nguyenvietyen_kinesismod/lufa.o
 .bss.keyboard_led_state
                0x00000000008002b0        0x1 .build/obj_kinesis_nguyenvietyen_kinesismod/lufa.o
 .bss.keyboard_idle
                0x00000000008002b1        0x1 .build/obj_kinesis_nguyenvietyen_kinesismod/lufa.o
                0x00000000008002b1                keyboard_idle
 *(COMMON)
 COMMON         0x00000000008002b2        0x2 .build/obj_kinesis_nguyenvietyen_kinesismod/quantum/keycode_config.o
                0x00000000008002b2                keymap_config
 COMMON         0x00000000008002b4       0x20 .build/obj_kinesis_nguyenvietyen_kinesismod/quantum/matrix_common.o
                0x00000000008002b4                raw_matrix
                0x00000000008002c4                matrix
 COMMON         0x00000000008002d4        0x4 .build/obj_kinesis_nguyenvietyen_kinesismod/platforms/avr/timer.o
                0x00000000008002d4                timer_count
 COMMON         0x00000000008002d8        0x3 .build/obj_kinesis_nguyenvietyen_kinesismod/lib/lufa/LUFA/Drivers/USB/Core/DeviceStandardReq.o
                0x00000000008002d8                USB_Device_ConfigurationNumber
                0x00000000008002d9                USB_Device_CurrentlySelfPowered
                0x00000000008002da                USB_Device_RemoteWakeupEnabled
 COMMON         0x00000000008002db        0xa .build/obj_kinesis_nguyenvietyen_kinesismod/lib/lufa/LUFA/Drivers/USB/Core/USBTask.o
                0x00000000008002db                USB_IsInitialized
                0x00000000008002dc                USB_DeviceState
                0x00000000008002dd                USB_ControlRequest
                0x00000000008002e5                PROVIDE (__bss_end, .)
                0x0000000000004450                __data_load_start = LOADADDR (.data)
                0x00000000000044da                __data_load_end = (__data_load_start + SIZEOF (.data))

.noinit         0x00000000008002e5        0x0
                [!provide]                        PROVIDE (__noinit_start, .)
 *(.noinit*)
                [!provide]                        PROVIDE (__noinit_end, .)
                0x00000000008002e5                _end = .
                [!provide]                        PROVIDE (__heap_start, .)

.eeprom         0x0000000000810000        0x0
 *(.eeprom*)
                0x0000000000810000                __eeprom_end = .

.fuse
 *(.fuse)
 *(.lfuse)
 *(.hfuse)
 *(.efuse)

.lock
 *(.lock*)

.signature
 *(.signature*)

.user_signatures
 *(.user_signatures*)

.stab
 *(.stab)

.stabstr
 *(.stabstr)

.stab.excl
 *(.stab.excl)

.stab.exclstr
 *(.stab.exclstr)

.stab.index
 *(.stab.index)

.stab.indexstr
 *(.stab.indexstr)

.comment        0x0000000000000000       0x11
 *(.comment)
 .comment       0x0000000000000000       0x11 .build/obj_kinesis_nguyenvietyen_kinesismod/matrix.o
                                         0x12 (size before relaxing)
 .comment       0x0000000000000011       0x12 .build/obj_kinesis_nguyenvietyen_kinesismod/quantum/keymap_introspection.o
 .comment       0x0000000000000011       0x12 .build/obj_kinesis_nguyenvietyen_kinesismod/quantum/quantum.o
 .comment       0x0000000000000011       0x12 .build/obj_kinesis_nguyenvietyen_kinesismod/quantum/led.o
 .comment       0x0000000000000011       0x12 .build/obj_kinesis_nguyenvietyen_kinesismod/quantum/action.o
 .comment       0x0000000000000011       0x12 .build/obj_kinesis_nguyenvietyen_kinesismod/quantum/action_layer.o
 .comment       0x0000000000000011       0x12 .build/obj_kinesis_nguyenvietyen_kinesismod/quantum/action_tapping.o
 .comment       0x0000000000000011       0x12 .build/obj_kinesis_nguyenvietyen_kinesismod/quantum/action_util.o
 .comment       0x0000000000000011       0x12 .build/obj_kinesis_nguyenvietyen_kinesismod/quantum/eeconfig.o
 .comment       0x0000000000000011       0x12 .build/obj_kinesis_nguyenvietyen_kinesismod/quantum/keyboard.o
 .comment       0x0000000000000011       0x12 .build/obj_kinesis_nguyenvietyen_kinesismod/quantum/keymap_common.o
 .comment       0x0000000000000011       0x12 .build/obj_kinesis_nguyenvietyen_kinesismod/quantum/keycode_config.o
 .comment       0x0000000000000011       0x12 .build/obj_kinesis_nguyenvietyen_kinesismod/quantum/logging/debug.o
 .comment       0x0000000000000011       0x12 .build/obj_kinesis_nguyenvietyen_kinesismod/quantum/logging/sendchar.o
 .comment       0x0000000000000011       0x12 .build/obj_kinesis_nguyenvietyen_kinesismod/quantum/matrix_common.o
 .comment       0x0000000000000011       0x12 .build/obj_kinesis_nguyenvietyen_kinesismod/quantum/debounce/sym_defer_g.o
 .comment       0x0000000000000011       0x12 .build/obj_kinesis_nguyenvietyen_kinesismod/quantum/main.o
 .comment       0x0000000000000011       0x12 .build/obj_kinesis_nguyenvietyen_kinesismod/platforms/avr/printf.o
 .comment       0x0000000000000011       0x12 .build/obj_kinesis_nguyenvietyen_kinesismod/platforms/avr/sleep_led.o
 .comment       0x0000000000000011       0x12 .build/obj_kinesis_nguyenvietyen_kinesismod/quantum/process_keycode/process_caps_word.o
 .comment       0x0000000000000011       0x12 .build/obj_kinesis_nguyenvietyen_kinesismod/quantum/caps_word.o
 .comment       0x0000000000000011       0x12 .build/obj_kinesis_nguyenvietyen_kinesismod/quantum/process_keycode/process_grave_esc.o
 .comment       0x0000000000000011       0x12 .build/obj_kinesis_nguyenvietyen_kinesismod/quantum/process_keycode/process_magic.o
 .comment       0x0000000000000011       0x12 .build/obj_kinesis_nguyenvietyen_kinesismod/quantum/mousekey.o
 .comment       0x0000000000000011       0x12 .build/obj_kinesis_nguyenvietyen_kinesismod/quantum/process_keycode/process_space_cadet.o
 .comment       0x0000000000000011       0x12 .build/obj_kinesis_nguyenvietyen_kinesismod/protocol/host.o
 .comment       0x0000000000000011       0x12 .build/obj_kinesis_nguyenvietyen_kinesismod/protocol/report.o
 .comment       0x0000000000000011       0x12 .build/obj_kinesis_nguyenvietyen_kinesismod/protocol/usb_device_state.o
 .comment       0x0000000000000011       0x12 .build/obj_kinesis_nguyenvietyen_kinesismod/platforms/suspend.o
 .comment       0x0000000000000011       0x12 .build/obj_kinesis_nguyenvietyen_kinesismod/platforms/avr/platform.o
 .comment       0x0000000000000011       0x12 .build/obj_kinesis_nguyenvietyen_kinesismod/platforms/avr/suspend.o
 .comment       0x0000000000000011       0x12 .build/obj_kinesis_nguyenvietyen_kinesismod/platforms/avr/timer.o
 .comment       0x0000000000000011       0x12 .build/obj_kinesis_nguyenvietyen_kinesismod/platforms/avr/bootloaders/caterina.o
 .comment       0x0000000000000011       0x12 .build/obj_kinesis_nguyenvietyen_kinesismod/lufa.o
 .comment       0x0000000000000011       0x12 .build/obj_kinesis_nguyenvietyen_kinesismod/usb_descriptor.o
 .comment       0x0000000000000011       0x12 .build/obj_kinesis_nguyenvietyen_kinesismod/lib/lufa/LUFA/Drivers/USB/Core/AVR8/Device_AVR8.o
 .comment       0x0000000000000011       0x12 .build/obj_kinesis_nguyenvietyen_kinesismod/lib/lufa/LUFA/Drivers/USB/Core/AVR8/EndpointStream_AVR8.o
 .comment       0x0000000000000011       0x12 .build/obj_kinesis_nguyenvietyen_kinesismod/lib/lufa/LUFA/Drivers/USB/Core/AVR8/Endpoint_AVR8.o
 .comment       0x0000000000000011       0x12 .build/obj_kinesis_nguyenvietyen_kinesismod/lib/lufa/LUFA/Drivers/USB/Core/AVR8/USBController_AVR8.o
 .comment       0x0000000000000011       0x12 .build/obj_kinesis_nguyenvietyen_kinesismod/lib/lufa/LUFA/Drivers/USB/Core/AVR8/USBInterrupt_AVR8.o
 .comment       0x0000000000000011       0x12 .build/obj_kinesis_nguyenvietyen_kinesismod/lib/lufa/LUFA/Drivers/USB/Core/DeviceStandardReq.o
 .comment       0x0000000000000011       0x12 .build/obj_kinesis_nguyenvietyen_kinesismod/lib/lufa/LUFA/Drivers/USB/Core/Events.o
 .comment       0x0000000000000011       0x12 .build/obj_kinesis_nguyenvietyen_kinesismod/lib/lufa/LUFA/Drivers/USB/Core/USBTask.o

.note.gnu.avr.deviceinfo
                0x0000000000000000       0x40
 .note.gnu.avr.deviceinfo
                0x0000000000000000       0x40 /usr/lib/gcc/avr/5.4.0/../../../avr/lib/avr5/crtatmega32u4.o

.note.gnu.build-id
 *(.note.gnu.build-id)

.debug
 *(.debug)

.line
 *(.line)

.debug_srcinfo
 *(.debug_srcinfo)

.debug_sfnames
 *(.debug_sfnames)

.debug_aranges  0x0000000000000000      0xf40
 *(.debug_aranges)
 .debug_aranges
                0x0000000000000000       0x28 .build/obj_kinesis_nguyenvietyen_kinesismod/matrix.o
 .debug_aranges
                0x0000000000000028       0x40 .build/obj_kinesis_nguyenvietyen_kinesismod/quantum/keymap_introspection.o
 .debug_aranges
                0x0000000000000068       0xf8 .build/obj_kinesis_nguyenvietyen_kinesismod/quantum/quantum.o
 .debug_aranges
                0x0000000000000160       0x68 .build/obj_kinesis_nguyenvietyen_kinesismod/quantum/led.o
 .debug_aranges
                0x00000000000001c8       0xe0 .build/obj_kinesis_nguyenvietyen_kinesismod/quantum/action.o
 .debug_aranges
                0x00000000000002a8      0x100 .build/obj_kinesis_nguyenvietyen_kinesismod/quantum/action_layer.o
 .debug_aranges
                0x00000000000003a8       0x48 .build/obj_kinesis_nguyenvietyen_kinesismod/quantum/action_tapping.o
 .debug_aranges
                0x00000000000003f0      0x178 .build/obj_kinesis_nguyenvietyen_kinesismod/quantum/action_util.o
 .debug_aranges
                0x0000000000000568       0xd8 .build/obj_kinesis_nguyenvietyen_kinesismod/quantum/eeconfig.o
 .debug_aranges
                0x0000000000000640       0xe0 .build/obj_kinesis_nguyenvietyen_kinesismod/quantum/keyboard.o
 .debug_aranges
                0x0000000000000720       0x30 .build/obj_kinesis_nguyenvietyen_kinesismod/quantum/keymap_common.o
 .debug_aranges
                0x0000000000000750       0x28 .build/obj_kinesis_nguyenvietyen_kinesismod/quantum/keycode_config.o
 .debug_aranges
                0x0000000000000778       0x18 .build/obj_kinesis_nguyenvietyen_kinesismod/quantum/logging/debug.o
 .debug_aranges
                0x0000000000000790       0x20 .build/obj_kinesis_nguyenvietyen_kinesismod/quantum/logging/sendchar.o
 .debug_aranges
                0x00000000000007b0       0x90 .build/obj_kinesis_nguyenvietyen_kinesismod/quantum/matrix_common.o
 .debug_aranges
                0x0000000000000840       0x30 .build/obj_kinesis_nguyenvietyen_kinesismod/quantum/debounce/sym_defer_g.o
 .debug_aranges
                0x0000000000000870       0x28 .build/obj_kinesis_nguyenvietyen_kinesismod/quantum/main.o
 .debug_aranges
                0x0000000000000898       0x20 .build/obj_kinesis_nguyenvietyen_kinesismod/platforms/avr/printf.o
 .debug_aranges
                0x00000000000008b8       0x40 .build/obj_kinesis_nguyenvietyen_kinesismod/platforms/avr/sleep_led.o
 .debug_aranges
                0x00000000000008f8       0x28 .build/obj_kinesis_nguyenvietyen_kinesismod/quantum/process_keycode/process_caps_word.o
 .debug_aranges
                0x0000000000000920       0x50 .build/obj_kinesis_nguyenvietyen_kinesismod/quantum/caps_word.o
 .debug_aranges
                0x0000000000000970       0x20 .build/obj_kinesis_nguyenvietyen_kinesismod/quantum/process_keycode/process_grave_esc.o
 .debug_aranges
                0x0000000000000990       0x20 .build/obj_kinesis_nguyenvietyen_kinesismod/quantum/process_keycode/process_magic.o
 .debug_aranges
                0x00000000000009b0       0x68 .build/obj_kinesis_nguyenvietyen_kinesismod/quantum/mousekey.o
 .debug_aranges
                0x0000000000000a18       0x30 .build/obj_kinesis_nguyenvietyen_kinesismod/quantum/process_keycode/process_space_cadet.o
 .debug_aranges
                0x0000000000000a48       0x78 .build/obj_kinesis_nguyenvietyen_kinesismod/protocol/host.o
 .debug_aranges
                0x0000000000000ac0       0x70 .build/obj_kinesis_nguyenvietyen_kinesismod/protocol/report.o
 .debug_aranges
                0x0000000000000b30       0x40 .build/obj_kinesis_nguyenvietyen_kinesismod/protocol/usb_device_state.o
 .debug_aranges
                0x0000000000000b70       0x38 .build/obj_kinesis_nguyenvietyen_kinesismod/platforms/suspend.o
 .debug_aranges
                0x0000000000000ba8       0x20 .build/obj_kinesis_nguyenvietyen_kinesismod/platforms/avr/platform.o
 .debug_aranges
                0x0000000000000bc8       0x28 .build/obj_kinesis_nguyenvietyen_kinesismod/platforms/avr/suspend.o
 .debug_aranges
                0x0000000000000bf0       0x50 .build/obj_kinesis_nguyenvietyen_kinesismod/platforms/avr/timer.o
 .debug_aranges
                0x0000000000000c40       0x28 .build/obj_kinesis_nguyenvietyen_kinesismod/platforms/avr/bootloaders/caterina.o
 .debug_aranges
                0x0000000000000c68       0xb8 .build/obj_kinesis_nguyenvietyen_kinesismod/lufa.o
 .debug_aranges
                0x0000000000000d20       0x20 .build/obj_kinesis_nguyenvietyen_kinesismod/usb_descriptor.o
 .debug_aranges
                0x0000000000000d40       0x20 .build/obj_kinesis_nguyenvietyen_kinesismod/lib/lufa/LUFA/Drivers/USB/Core/AVR8/Device_AVR8.o
 .debug_aranges
                0x0000000000000d60       0xc8 .build/obj_kinesis_nguyenvietyen_kinesismod/lib/lufa/LUFA/Drivers/USB/Core/AVR8/EndpointStream_AVR8.o
 .debug_aranges
                0x0000000000000e28       0x40 .build/obj_kinesis_nguyenvietyen_kinesismod/lib/lufa/LUFA/Drivers/USB/Core/AVR8/Endpoint_AVR8.o
 .debug_aranges
                0x0000000000000e68       0x30 .build/obj_kinesis_nguyenvietyen_kinesismod/lib/lufa/LUFA/Drivers/USB/Core/AVR8/USBController_AVR8.o
 .debug_aranges
                0x0000000000000e98       0x38 .build/obj_kinesis_nguyenvietyen_kinesismod/lib/lufa/LUFA/Drivers/USB/Core/AVR8/USBInterrupt_AVR8.o
 .debug_aranges
                0x0000000000000ed0       0x20 .build/obj_kinesis_nguyenvietyen_kinesismod/lib/lufa/LUFA/Drivers/USB/Core/DeviceStandardReq.o
 .debug_aranges
                0x0000000000000ef0       0x30 .build/obj_kinesis_nguyenvietyen_kinesismod/lib/lufa/LUFA/Drivers/USB/Core/Events.o
 .debug_aranges
                0x0000000000000f20       0x20 .build/obj_kinesis_nguyenvietyen_kinesismod/lib/lufa/LUFA/Drivers/USB/Core/USBTask.o

.debug_pubnames
 *(.debug_pubnames)

.debug_info     0x0000000000000000    0x2b284
 *(.debug_info .gnu.linkonce.wi.*)
 .debug_info    0x0000000000000000      0x9f4 /usr/lib/gcc/avr/5.4.0/../../../avr/lib/avr5/crtatmega32u4.o
 .debug_info    0x00000000000009f4      0x1c1 .build/obj_kinesis_nguyenvietyen_kinesismod/matrix.o
 .debug_info    0x0000000000000bb5     0x26fa .build/obj_kinesis_nguyenvietyen_kinesismod/quantum/keymap_introspection.o
 .debug_info    0x00000000000032af     0x3334 .build/obj_kinesis_nguyenvietyen_kinesismod/quantum/quantum.o
 .debug_info    0x00000000000065e3      0x3f6 .build/obj_kinesis_nguyenvietyen_kinesismod/quantum/led.o
 .debug_info    0x00000000000069d9     0x3e90 .build/obj_kinesis_nguyenvietyen_kinesismod/quantum/action.o
 .debug_info    0x000000000000a869      0xc6a .build/obj_kinesis_nguyenvietyen_kinesismod/quantum/action_layer.o
 .debug_info    0x000000000000b4d3     0x2caa .build/obj_kinesis_nguyenvietyen_kinesismod/quantum/action_tapping.o
 .debug_info    0x000000000000e17d      0xc01 .build/obj_kinesis_nguyenvietyen_kinesismod/quantum/action_util.o
 .debug_info    0x000000000000ed7e      0x859 .build/obj_kinesis_nguyenvietyen_kinesismod/quantum/eeconfig.o
 .debug_info    0x000000000000f5d7      0xb2a .build/obj_kinesis_nguyenvietyen_kinesismod/quantum/keyboard.o
 .debug_info    0x0000000000010101     0x2c6e .build/obj_kinesis_nguyenvietyen_kinesismod/quantum/keymap_common.o
 .debug_info    0x0000000000012d6f     0x2528 .build/obj_kinesis_nguyenvietyen_kinesismod/quantum/keycode_config.o
 .debug_info    0x0000000000015297      0x103 .build/obj_kinesis_nguyenvietyen_kinesismod/quantum/logging/debug.o
 .debug_info    0x000000000001539a       0xa0 .build/obj_kinesis_nguyenvietyen_kinesismod/quantum/logging/sendchar.o
 .debug_info    0x000000000001543a      0x433 .build/obj_kinesis_nguyenvietyen_kinesismod/quantum/matrix_common.o
 .debug_info    0x000000000001586d      0x280 .build/obj_kinesis_nguyenvietyen_kinesismod/quantum/debounce/sym_defer_g.o
 .debug_info    0x0000000000015aed      0x188 .build/obj_kinesis_nguyenvietyen_kinesismod/quantum/main.o
 .debug_info    0x0000000000015c75       0xe5 .build/obj_kinesis_nguyenvietyen_kinesismod/platforms/avr/printf.o
 .debug_info    0x0000000000015d5a      0x291 .build/obj_kinesis_nguyenvietyen_kinesismod/platforms/avr/sleep_led.o
 .debug_info    0x0000000000015feb     0x2878 .build/obj_kinesis_nguyenvietyen_kinesismod/quantum/process_keycode/process_caps_word.o
 .debug_info    0x0000000000018863      0x255 .build/obj_kinesis_nguyenvietyen_kinesismod/quantum/caps_word.o
 .debug_info    0x0000000000018ab8     0x2654 .build/obj_kinesis_nguyenvietyen_kinesismod/quantum/process_keycode/process_grave_esc.o
 .debug_info    0x000000000001b10c     0x2697 .build/obj_kinesis_nguyenvietyen_kinesismod/quantum/process_keycode/process_magic.o
 .debug_info    0x000000000001d7a3     0x2894 .build/obj_kinesis_nguyenvietyen_kinesismod/quantum/mousekey.o
 .debug_info    0x0000000000020037     0x268d .build/obj_kinesis_nguyenvietyen_kinesismod/quantum/process_keycode/process_space_cadet.o
 .debug_info    0x00000000000226c4      0x6c4 .build/obj_kinesis_nguyenvietyen_kinesismod/protocol/host.o
 .debug_info    0x0000000000022d88     0x28c6 .build/obj_kinesis_nguyenvietyen_kinesismod/protocol/report.o
 .debug_info    0x000000000002564e      0x22a .build/obj_kinesis_nguyenvietyen_kinesismod/protocol/usb_device_state.o
 .debug_info    0x0000000000025878      0x145 .build/obj_kinesis_nguyenvietyen_kinesismod/platforms/suspend.o
 .debug_info    0x00000000000259bd       0x9c .build/obj_kinesis_nguyenvietyen_kinesismod/platforms/avr/platform.o
 .debug_info    0x0000000000025a59      0x148 .build/obj_kinesis_nguyenvietyen_kinesismod/platforms/avr/suspend.o
 .debug_info    0x0000000000025ba1      0x3ab .build/obj_kinesis_nguyenvietyen_kinesismod/platforms/avr/timer.o
 .debug_info    0x0000000000025f4c      0x11b .build/obj_kinesis_nguyenvietyen_kinesismod/platforms/avr/bootloaders/caterina.o
 .debug_info    0x0000000000026067     0x1117 .build/obj_kinesis_nguyenvietyen_kinesismod/lufa.o
 .debug_info    0x000000000002717e      0x7c8 .build/obj_kinesis_nguyenvietyen_kinesismod/usb_descriptor.o
 .debug_info    0x0000000000027946       0xd9 .build/obj_kinesis_nguyenvietyen_kinesismod/lib/lufa/LUFA/Drivers/USB/Core/AVR8/Device_AVR8.o
 .debug_info    0x0000000000027a1f     0x17bd .build/obj_kinesis_nguyenvietyen_kinesismod/lib/lufa/LUFA/Drivers/USB/Core/AVR8/EndpointStream_AVR8.o
 .debug_info    0x00000000000291dc      0x627 .build/obj_kinesis_nguyenvietyen_kinesismod/lib/lufa/LUFA/Drivers/USB/Core/AVR8/Endpoint_AVR8.o
 .debug_info    0x0000000000029803      0x4ed .build/obj_kinesis_nguyenvietyen_kinesismod/lib/lufa/LUFA/Drivers/USB/Core/AVR8/USBController_AVR8.o
 .debug_info    0x0000000000029cf0      0x7ee .build/obj_kinesis_nguyenvietyen_kinesismod/lib/lufa/LUFA/Drivers/USB/Core/AVR8/USBInterrupt_AVR8.o
 .debug_info    0x000000000002a4de      0xa48 .build/obj_kinesis_nguyenvietyen_kinesismod/lib/lufa/LUFA/Drivers/USB/Core/DeviceStandardReq.o
 .debug_info    0x000000000002af26       0xe5 .build/obj_kinesis_nguyenvietyen_kinesismod/lib/lufa/LUFA/Drivers/USB/Core/Events.o
 .debug_info    0x000000000002b00b      0x279 .build/obj_kinesis_nguyenvietyen_kinesismod/lib/lufa/LUFA/Drivers/USB/Core/USBTask.o

.debug_abbrev   0x0000000000000000     0x4f06
 *(.debug_abbrev)
 .debug_abbrev  0x0000000000000000      0x96a /usr/lib/gcc/avr/5.4.0/../../../avr/lib/avr5/crtatmega32u4.o
 .debug_abbrev  0x000000000000096a      0x148 .build/obj_kinesis_nguyenvietyen_kinesismod/matrix.o
 .debug_abbrev  0x0000000000000ab2      0x15c .build/obj_kinesis_nguyenvietyen_kinesismod/quantum/keymap_introspection.o
 .debug_abbrev  0x0000000000000c0e      0x33b .build/obj_kinesis_nguyenvietyen_kinesismod/quantum/quantum.o
 .debug_abbrev  0x0000000000000f49      0x1a8 .build/obj_kinesis_nguyenvietyen_kinesismod/quantum/led.o
 .debug_abbrev  0x00000000000010f1      0x37c .build/obj_kinesis_nguyenvietyen_kinesismod/quantum/action.o
 .debug_abbrev  0x000000000000146d      0x29b .build/obj_kinesis_nguyenvietyen_kinesismod/quantum/action_layer.o
 .debug_abbrev  0x0000000000001708      0x2c8 .build/obj_kinesis_nguyenvietyen_kinesismod/quantum/action_tapping.o
 .debug_abbrev  0x00000000000019d0      0x2a7 .build/obj_kinesis_nguyenvietyen_kinesismod/quantum/action_util.o
 .debug_abbrev  0x0000000000001c77      0x158 .build/obj_kinesis_nguyenvietyen_kinesismod/quantum/eeconfig.o
 .debug_abbrev  0x0000000000001dcf      0x35d .build/obj_kinesis_nguyenvietyen_kinesismod/quantum/keyboard.o
 .debug_abbrev  0x000000000000212c      0x1cd .build/obj_kinesis_nguyenvietyen_kinesismod/quantum/keymap_common.o
 .debug_abbrev  0x00000000000022f9       0xea .build/obj_kinesis_nguyenvietyen_kinesismod/quantum/keycode_config.o
 .debug_abbrev  0x00000000000023e3       0x87 .build/obj_kinesis_nguyenvietyen_kinesismod/quantum/logging/debug.o
 .debug_abbrev  0x000000000000246a       0x62 .build/obj_kinesis_nguyenvietyen_kinesismod/quantum/logging/sendchar.o
 .debug_abbrev  0x00000000000024cc      0x1f3 .build/obj_kinesis_nguyenvietyen_kinesismod/quantum/matrix_common.o
 .debug_abbrev  0x00000000000026bf      0x180 .build/obj_kinesis_nguyenvietyen_kinesismod/quantum/debounce/sym_defer_g.o
 .debug_abbrev  0x000000000000283f       0x7f .build/obj_kinesis_nguyenvietyen_kinesismod/quantum/main.o
 .debug_abbrev  0x00000000000028be       0x97 .build/obj_kinesis_nguyenvietyen_kinesismod/platforms/avr/printf.o
 .debug_abbrev  0x0000000000002955      0x127 .build/obj_kinesis_nguyenvietyen_kinesismod/platforms/avr/sleep_led.o
 .debug_abbrev  0x0000000000002a7c      0x14e .build/obj_kinesis_nguyenvietyen_kinesismod/quantum/process_keycode/process_caps_word.o
 .debug_abbrev  0x0000000000002bca       0xe6 .build/obj_kinesis_nguyenvietyen_kinesismod/quantum/caps_word.o
 .debug_abbrev  0x0000000000002cb0      0x167 .build/obj_kinesis_nguyenvietyen_kinesismod/quantum/process_keycode/process_grave_esc.o
 .debug_abbrev  0x0000000000002e17      0x11f .build/obj_kinesis_nguyenvietyen_kinesismod/quantum/process_keycode/process_magic.o
 .debug_abbrev  0x0000000000002f36      0x256 .build/obj_kinesis_nguyenvietyen_kinesismod/quantum/mousekey.o
 .debug_abbrev  0x000000000000318c      0x16a .build/obj_kinesis_nguyenvietyen_kinesismod/quantum/process_keycode/process_space_cadet.o
 .debug_abbrev  0x00000000000032f6      0x21f .build/obj_kinesis_nguyenvietyen_kinesismod/protocol/host.o
 .debug_abbrev  0x0000000000003515      0x263 .build/obj_kinesis_nguyenvietyen_kinesismod/protocol/report.o
 .debug_abbrev  0x0000000000003778       0xf4 .build/obj_kinesis_nguyenvietyen_kinesismod/protocol/usb_device_state.o
 .debug_abbrev  0x000000000000386c       0xde .build/obj_kinesis_nguyenvietyen_kinesismod/platforms/suspend.o
 .debug_abbrev  0x000000000000394a       0x6f .build/obj_kinesis_nguyenvietyen_kinesismod/platforms/avr/platform.o
 .debug_abbrev  0x00000000000039b9       0xa2 .build/obj_kinesis_nguyenvietyen_kinesismod/platforms/avr/suspend.o
 .debug_abbrev  0x0000000000003a5b      0x175 .build/obj_kinesis_nguyenvietyen_kinesismod/platforms/avr/timer.o
 .debug_abbrev  0x0000000000003bd0       0xc0 .build/obj_kinesis_nguyenvietyen_kinesismod/platforms/avr/bootloaders/caterina.o
 .debug_abbrev  0x0000000000003c90      0x42c .build/obj_kinesis_nguyenvietyen_kinesismod/lufa.o
 .debug_abbrev  0x00000000000040bc      0x184 .build/obj_kinesis_nguyenvietyen_kinesismod/usb_descriptor.o
 .debug_abbrev  0x0000000000004240       0x80 .build/obj_kinesis_nguyenvietyen_kinesismod/lib/lufa/LUFA/Drivers/USB/Core/AVR8/Device_AVR8.o
 .debug_abbrev  0x00000000000042c0      0x1ea .build/obj_kinesis_nguyenvietyen_kinesismod/lib/lufa/LUFA/Drivers/USB/Core/AVR8/EndpointStream_AVR8.o
 .debug_abbrev  0x00000000000044aa      0x226 .build/obj_kinesis_nguyenvietyen_kinesismod/lib/lufa/LUFA/Drivers/USB/Core/AVR8/Endpoint_AVR8.o
 .debug_abbrev  0x00000000000046d0      0x183 .build/obj_kinesis_nguyenvietyen_kinesismod/lib/lufa/LUFA/Drivers/USB/Core/AVR8/USBController_AVR8.o
 .debug_abbrev  0x0000000000004853      0x213 .build/obj_kinesis_nguyenvietyen_kinesismod/lib/lufa/LUFA/Drivers/USB/Core/AVR8/USBInterrupt_AVR8.o
 .debug_abbrev  0x0000000000004a66      0x29c .build/obj_kinesis_nguyenvietyen_kinesismod/lib/lufa/LUFA/Drivers/USB/Core/DeviceStandardReq.o
 .debug_abbrev  0x0000000000004d02       0x99 .build/obj_kinesis_nguyenvietyen_kinesismod/lib/lufa/LUFA/Drivers/USB/Core/Events.o
 .debug_abbrev  0x0000000000004d9b      0x16b .build/obj_kinesis_nguyenvietyen_kinesismod/lib/lufa/LUFA/Drivers/USB/Core/USBTask.o

.debug_line     0x0000000000000000     0x843f
 *(.debug_line .debug_line.* .debug_line_end)
 .debug_line    0x0000000000000000       0x1a /usr/lib/gcc/avr/5.4.0/../../../avr/lib/avr5/crtatmega32u4.o
 .debug_line    0x000000000000001a      0x143 .build/obj_kinesis_nguyenvietyen_kinesismod/matrix.o
 .debug_line    0x000000000000015d      0x178 .build/obj_kinesis_nguyenvietyen_kinesismod/quantum/keymap_introspection.o
 .debug_line    0x00000000000002d5      0x71f .build/obj_kinesis_nguyenvietyen_kinesismod/quantum/quantum.o
 .debug_line    0x00000000000009f4      0x25a .build/obj_kinesis_nguyenvietyen_kinesismod/quantum/led.o
 .debug_line    0x0000000000000c4e      0xaa6 .build/obj_kinesis_nguyenvietyen_kinesismod/quantum/action.o
 .debug_line    0x00000000000016f4      0x440 .build/obj_kinesis_nguyenvietyen_kinesismod/quantum/action_layer.o
 .debug_line    0x0000000000001b34      0x4ca .build/obj_kinesis_nguyenvietyen_kinesismod/quantum/action_tapping.o
 .debug_line    0x0000000000001ffe      0x65b .build/obj_kinesis_nguyenvietyen_kinesismod/quantum/action_util.o
 .debug_line    0x0000000000002659      0x34f .build/obj_kinesis_nguyenvietyen_kinesismod/quantum/eeconfig.o
 .debug_line    0x00000000000029a8      0x4a1 .build/obj_kinesis_nguyenvietyen_kinesismod/quantum/keyboard.o
 .debug_line    0x0000000000002e49      0x23a .build/obj_kinesis_nguyenvietyen_kinesismod/quantum/keymap_common.o
 .debug_line    0x0000000000003083      0x1d0 .build/obj_kinesis_nguyenvietyen_kinesismod/quantum/keycode_config.o
 .debug_line    0x0000000000003253       0x61 .build/obj_kinesis_nguyenvietyen_kinesismod/quantum/logging/debug.o
 .debug_line    0x00000000000032b4       0x6f .build/obj_kinesis_nguyenvietyen_kinesismod/quantum/logging/sendchar.o
 .debug_line    0x0000000000003323      0x247 .build/obj_kinesis_nguyenvietyen_kinesismod/quantum/matrix_common.o
 .debug_line    0x000000000000356a      0x15d .build/obj_kinesis_nguyenvietyen_kinesismod/quantum/debounce/sym_defer_g.o
 .debug_line    0x00000000000036c7       0xac .build/obj_kinesis_nguyenvietyen_kinesismod/quantum/main.o
 .debug_line    0x0000000000003773       0x96 .build/obj_kinesis_nguyenvietyen_kinesismod/platforms/avr/printf.o
 .debug_line    0x0000000000003809      0x123 .build/obj_kinesis_nguyenvietyen_kinesismod/platforms/avr/sleep_led.o
 .debug_line    0x000000000000392c      0x1a5 .build/obj_kinesis_nguyenvietyen_kinesismod/quantum/process_keycode/process_caps_word.o
 .debug_line    0x0000000000003ad1      0x178 .build/obj_kinesis_nguyenvietyen_kinesismod/quantum/caps_word.o
 .debug_line    0x0000000000003c49      0x146 .build/obj_kinesis_nguyenvietyen_kinesismod/quantum/process_keycode/process_grave_esc.o
 .debug_line    0x0000000000003d8f      0x1fa .build/obj_kinesis_nguyenvietyen_kinesismod/quantum/process_keycode/process_magic.o
 .debug_line    0x0000000000003f89      0x64b .build/obj_kinesis_nguyenvietyen_kinesismod/quantum/mousekey.o
 .debug_line    0x00000000000045d4      0x1b6 .build/obj_kinesis_nguyenvietyen_kinesismod/quantum/process_keycode/process_space_cadet.o
 .debug_line    0x000000000000478a      0x21d .build/obj_kinesis_nguyenvietyen_kinesismod/protocol/host.o
 .debug_line    0x00000000000049a7      0x390 .build/obj_kinesis_nguyenvietyen_kinesismod/protocol/report.o
 .debug_line    0x0000000000004d37      0x104 .build/obj_kinesis_nguyenvietyen_kinesismod/protocol/usb_device_state.o
 .debug_line    0x0000000000004e3b       0xe6 .build/obj_kinesis_nguyenvietyen_kinesismod/platforms/suspend.o
 .debug_line    0x0000000000004f21       0x73 .build/obj_kinesis_nguyenvietyen_kinesismod/platforms/avr/platform.o
 .debug_line    0x0000000000004f94      0x11a .build/obj_kinesis_nguyenvietyen_kinesismod/platforms/avr/suspend.o
 .debug_line    0x00000000000050ae      0x1f2 .build/obj_kinesis_nguyenvietyen_kinesismod/platforms/avr/timer.o
 .debug_line    0x00000000000052a0       0xbd .build/obj_kinesis_nguyenvietyen_kinesismod/platforms/avr/bootloaders/caterina.o
 .debug_line    0x000000000000535d      0x739 .build/obj_kinesis_nguyenvietyen_kinesismod/lufa.o
 .debug_line    0x0000000000005a96      0x21f .build/obj_kinesis_nguyenvietyen_kinesismod/usb_descriptor.o
 .debug_line    0x0000000000005cb5      0x10a .build/obj_kinesis_nguyenvietyen_kinesismod/lib/lufa/LUFA/Drivers/USB/Core/AVR8/Device_AVR8.o
 .debug_line    0x0000000000005dbf     0x13cb .build/obj_kinesis_nguyenvietyen_kinesismod/lib/lufa/LUFA/Drivers/USB/Core/AVR8/EndpointStream_AVR8.o
 .debug_line    0x000000000000718a      0x475 .build/obj_kinesis_nguyenvietyen_kinesismod/lib/lufa/LUFA/Drivers/USB/Core/AVR8/Endpoint_AVR8.o
 .debug_line    0x00000000000075ff      0x2da .build/obj_kinesis_nguyenvietyen_kinesismod/lib/lufa/LUFA/Drivers/USB/Core/AVR8/USBController_AVR8.o
 .debug_line    0x00000000000078d9      0x50a .build/obj_kinesis_nguyenvietyen_kinesismod/lib/lufa/LUFA/Drivers/USB/Core/AVR8/USBInterrupt_AVR8.o
 .debug_line    0x0000000000007de3      0x469 .build/obj_kinesis_nguyenvietyen_kinesismod/lib/lufa/LUFA/Drivers/USB/Core/DeviceStandardReq.o
 .debug_line    0x000000000000824c       0x96 .build/obj_kinesis_nguyenvietyen_kinesismod/lib/lufa/LUFA/Drivers/USB/Core/Events.o
 .debug_line    0x00000000000082e2      0x15d .build/obj_kinesis_nguyenvietyen_kinesismod/lib/lufa/LUFA/Drivers/USB/Core/USBTask.o

.debug_frame    0x0000000000000000     0x20ec
 *(.debug_frame)
 .debug_frame   0x0000000000000000       0x48 .build/obj_kinesis_nguyenvietyen_kinesismod/matrix.o
 .debug_frame   0x0000000000000048       0x64 .build/obj_kinesis_nguyenvietyen_kinesismod/quantum/keymap_introspection.o
 .debug_frame   0x00000000000000ac      0x2d0 .build/obj_kinesis_nguyenvietyen_kinesismod/quantum/quantum.o
 .debug_frame   0x000000000000037c       0xc8 .build/obj_kinesis_nguyenvietyen_kinesismod/quantum/led.o
 .debug_frame   0x0000000000000444      0x208 .build/obj_kinesis_nguyenvietyen_kinesismod/quantum/action.o
 .debug_frame   0x000000000000064c      0x238 .build/obj_kinesis_nguyenvietyen_kinesismod/quantum/action_layer.o
 .debug_frame   0x0000000000000884       0xb8 .build/obj_kinesis_nguyenvietyen_kinesismod/quantum/action_tapping.o
 .debug_frame   0x000000000000093c      0x314 .build/obj_kinesis_nguyenvietyen_kinesismod/quantum/action_util.o
 .debug_frame   0x0000000000000c50      0x19c .build/obj_kinesis_nguyenvietyen_kinesismod/quantum/eeconfig.o
 .debug_frame   0x0000000000000dec      0x254 .build/obj_kinesis_nguyenvietyen_kinesismod/quantum/keyboard.o
 .debug_frame   0x0000000000001040       0x54 .build/obj_kinesis_nguyenvietyen_kinesismod/quantum/keymap_common.o
 .debug_frame   0x0000000000001094       0x34 .build/obj_kinesis_nguyenvietyen_kinesismod/quantum/keycode_config.o
 .debug_frame   0x00000000000010c8       0x24 .build/obj_kinesis_nguyenvietyen_kinesismod/quantum/logging/sendchar.o
 .debug_frame   0x00000000000010ec      0x12c .build/obj_kinesis_nguyenvietyen_kinesismod/quantum/matrix_common.o
 .debug_frame   0x0000000000001218       0x64 .build/obj_kinesis_nguyenvietyen_kinesismod/quantum/debounce/sym_defer_g.o
 .debug_frame   0x000000000000127c       0x34 .build/obj_kinesis_nguyenvietyen_kinesismod/quantum/main.o
 .debug_frame   0x00000000000012b0       0x24 .build/obj_kinesis_nguyenvietyen_kinesismod/platforms/avr/printf.o
 .debug_frame   0x00000000000012d4       0xac .build/obj_kinesis_nguyenvietyen_kinesismod/platforms/avr/sleep_led.o
 .debug_frame   0x0000000000001380       0x48 .build/obj_kinesis_nguyenvietyen_kinesismod/quantum/process_keycode/process_caps_word.o
 .debug_frame   0x00000000000013c8       0x84 .build/obj_kinesis_nguyenvietyen_kinesismod/quantum/caps_word.o
 .debug_frame   0x000000000000144c       0x30 .build/obj_kinesis_nguyenvietyen_kinesismod/quantum/process_keycode/process_grave_esc.o
 .debug_frame   0x000000000000147c       0x30 .build/obj_kinesis_nguyenvietyen_kinesismod/quantum/process_keycode/process_magic.o
 .debug_frame   0x00000000000014ac       0xc8 .build/obj_kinesis_nguyenvietyen_kinesismod/quantum/mousekey.o
 .debug_frame   0x0000000000001574       0x60 .build/obj_kinesis_nguyenvietyen_kinesismod/quantum/process_keycode/process_space_cadet.o
 .debug_frame   0x00000000000015d4      0x104 .build/obj_kinesis_nguyenvietyen_kinesismod/protocol/host.o
 .debug_frame   0x00000000000016d8       0xd0 .build/obj_kinesis_nguyenvietyen_kinesismod/protocol/report.o
 .debug_frame   0x00000000000017a8       0x84 .build/obj_kinesis_nguyenvietyen_kinesismod/protocol/usb_device_state.o
 .debug_frame   0x000000000000182c       0x8c .build/obj_kinesis_nguyenvietyen_kinesismod/platforms/suspend.o
 .debug_frame   0x00000000000018b8       0x24 .build/obj_kinesis_nguyenvietyen_kinesismod/platforms/avr/platform.o
 .debug_frame   0x00000000000018dc       0x34 .build/obj_kinesis_nguyenvietyen_kinesismod/platforms/avr/suspend.o
 .debug_frame   0x0000000000001910       0xb8 .build/obj_kinesis_nguyenvietyen_kinesismod/platforms/avr/timer.o
 .debug_frame   0x00000000000019c8       0x34 .build/obj_kinesis_nguyenvietyen_kinesismod/platforms/avr/bootloaders/caterina.o
 .debug_frame   0x00000000000019fc      0x180 .build/obj_kinesis_nguyenvietyen_kinesismod/lufa.o
 .debug_frame   0x0000000000001b7c       0x24 .build/obj_kinesis_nguyenvietyen_kinesismod/usb_descriptor.o
 .debug_frame   0x0000000000001ba0       0x24 .build/obj_kinesis_nguyenvietyen_kinesismod/lib/lufa/LUFA/Drivers/USB/Core/AVR8/Device_AVR8.o
 .debug_frame   0x0000000000001bc4      0x2cc .build/obj_kinesis_nguyenvietyen_kinesismod/lib/lufa/LUFA/Drivers/USB/Core/AVR8/EndpointStream_AVR8.o
 .debug_frame   0x0000000000001e90       0x78 .build/obj_kinesis_nguyenvietyen_kinesismod/lib/lufa/LUFA/Drivers/USB/Core/AVR8/Endpoint_AVR8.o
 .debug_frame   0x0000000000001f08       0x58 .build/obj_kinesis_nguyenvietyen_kinesismod/lib/lufa/LUFA/Drivers/USB/Core/AVR8/USBController_AVR8.o
 .debug_frame   0x0000000000001f60       0xec .build/obj_kinesis_nguyenvietyen_kinesismod/lib/lufa/LUFA/Drivers/USB/Core/AVR8/USBInterrupt_AVR8.o
 .debug_frame   0x000000000000204c       0x30 .build/obj_kinesis_nguyenvietyen_kinesismod/lib/lufa/LUFA/Drivers/USB/Core/DeviceStandardReq.o
 .debug_frame   0x000000000000207c       0x44 .build/obj_kinesis_nguyenvietyen_kinesismod/lib/lufa/LUFA/Drivers/USB/Core/Events.o
 .debug_frame   0x00000000000020c0       0x2c .build/obj_kinesis_nguyenvietyen_kinesismod/lib/lufa/LUFA/Drivers/USB/Core/USBTask.o

.debug_str      0x0000000000000000     0x904d
 *(.debug_str)
 .debug_str     0x0000000000000000      0x371 /usr/lib/gcc/avr/5.4.0/../../../avr/lib/avr5/crtatmega32u4.o
 .debug_str     0x0000000000000371      0x222 .build/obj_kinesis_nguyenvietyen_kinesismod/matrix.o
                                        0x262 (size before relaxing)
 .debug_str     0x0000000000000593     0x44dd .build/obj_kinesis_nguyenvietyen_kinesismod/quantum/keymap_introspection.o
                                       0x4698 (size before relaxing)
 .debug_str     0x0000000000004a70      0x4f1 .build/obj_kinesis_nguyenvietyen_kinesismod/quantum/quantum.o
                                       0x4b1b (size before relaxing)
 .debug_str     0x0000000000004f61      0x15d .build/obj_kinesis_nguyenvietyen_kinesismod/quantum/led.o
                                        0x352 (size before relaxing)
 .debug_str     0x00000000000050be      0xada .build/obj_kinesis_nguyenvietyen_kinesismod/quantum/action.o
                                       0x5039 (size before relaxing)
 .debug_str     0x0000000000005b98      0x170 .build/obj_kinesis_nguyenvietyen_kinesismod/quantum/action_layer.o
                                        0x59c (size before relaxing)
 .debug_str     0x0000000000005d08       0xdc .build/obj_kinesis_nguyenvietyen_kinesismod/quantum/action_tapping.o
                                       0x4672 (size before relaxing)
 .debug_str     0x0000000000005de4      0x2af .build/obj_kinesis_nguyenvietyen_kinesismod/quantum/action_util.o
                                        0x7ac (size before relaxing)
 .debug_str     0x0000000000006093      0x275 .build/obj_kinesis_nguyenvietyen_kinesismod/quantum/eeconfig.o
                                        0x49c (size before relaxing)
 .debug_str     0x0000000000006308      0x41c .build/obj_kinesis_nguyenvietyen_kinesismod/quantum/keyboard.o
                                        0x8ea (size before relaxing)
 .debug_str     0x0000000000006724       0x52 .build/obj_kinesis_nguyenvietyen_kinesismod/quantum/keymap_common.o
                                       0x4bcf (size before relaxing)
 .debug_str     0x0000000000006776       0x19 .build/obj_kinesis_nguyenvietyen_kinesismod/quantum/keycode_config.o
                                       0x438d (size before relaxing)
 .debug_str     0x000000000000678f       0x18 .build/obj_kinesis_nguyenvietyen_kinesismod/quantum/logging/debug.o
                                        0x200 (size before relaxing)
 .debug_str     0x00000000000067a7       0x1b .build/obj_kinesis_nguyenvietyen_kinesismod/quantum/logging/sendchar.o
                                        0x1c6 (size before relaxing)
 .debug_str     0x00000000000067c2       0xe9 .build/obj_kinesis_nguyenvietyen_kinesismod/quantum/matrix_common.o
                                        0x375 (size before relaxing)
 .debug_str     0x00000000000068ab       0xb8 .build/obj_kinesis_nguyenvietyen_kinesismod/quantum/debounce/sym_defer_g.o
                                        0x2ac (size before relaxing)
 .debug_str     0x0000000000006963       0x93 .build/obj_kinesis_nguyenvietyen_kinesismod/quantum/main.o
                                        0x269 (size before relaxing)
 .debug_str     0x00000000000069f6       0x36 .build/obj_kinesis_nguyenvietyen_kinesismod/platforms/avr/printf.o
                                        0x1eb (size before relaxing)
 .debug_str     0x0000000000006a2c       0x78 .build/obj_kinesis_nguyenvietyen_kinesismod/platforms/avr/sleep_led.o
                                        0x2ab (size before relaxing)
 .debug_str     0x0000000000006aa4       0xee .build/obj_kinesis_nguyenvietyen_kinesismod/quantum/process_keycode/process_caps_word.o
                                       0x480f (size before relaxing)
 .debug_str     0x0000000000006b92       0x38 .build/obj_kinesis_nguyenvietyen_kinesismod/quantum/caps_word.o
                                        0x311 (size before relaxing)
 .debug_str     0x0000000000006bca       0x42 .build/obj_kinesis_nguyenvietyen_kinesismod/quantum/process_keycode/process_grave_esc.o
                                       0x4435 (size before relaxing)
 .debug_str     0x0000000000006c0c       0x28 .build/obj_kinesis_nguyenvietyen_kinesismod/quantum/process_keycode/process_magic.o
                                       0x4486 (size before relaxing)
 .debug_str     0x0000000000006c34      0x18e .build/obj_kinesis_nguyenvietyen_kinesismod/quantum/mousekey.o
                                       0x4470 (size before relaxing)
 .debug_str     0x0000000000006dc2       0x7f .build/obj_kinesis_nguyenvietyen_kinesismod/quantum/process_keycode/process_space_cadet.o
                                       0x43db (size before relaxing)
 .debug_str     0x0000000000006e41      0x1b2 .build/obj_kinesis_nguyenvietyen_kinesismod/protocol/host.o
                                        0x525 (size before relaxing)
 .debug_str     0x0000000000006ff3       0x7d .build/obj_kinesis_nguyenvietyen_kinesismod/protocol/report.o
                                       0x44a8 (size before relaxing)
 .debug_str     0x0000000000007070      0x16f .build/obj_kinesis_nguyenvietyen_kinesismod/protocol/usb_device_state.o
                                        0x310 (size before relaxing)
 .debug_str     0x00000000000071df       0x46 .build/obj_kinesis_nguyenvietyen_kinesismod/platforms/suspend.o
                                        0x22f (size before relaxing)
 .debug_str     0x0000000000007225       0x26 .build/obj_kinesis_nguyenvietyen_kinesismod/platforms/avr/platform.o
                                        0x1d0 (size before relaxing)
 .debug_str     0x000000000000724b       0xeb .build/obj_kinesis_nguyenvietyen_kinesismod/platforms/avr/suspend.o
                                        0x2ec (size before relaxing)
 .debug_str     0x0000000000007336       0x6d .build/obj_kinesis_nguyenvietyen_kinesismod/platforms/avr/timer.o
                                        0x260 (size before relaxing)
 .debug_str     0x00000000000073a3       0x49 .build/obj_kinesis_nguyenvietyen_kinesismod/platforms/avr/bootloaders/caterina.o
                                        0x207 (size before relaxing)
 .debug_str     0x00000000000073ec      0x6d1 .build/obj_kinesis_nguyenvietyen_kinesismod/lufa.o
                                        0xcc6 (size before relaxing)
 .debug_str     0x0000000000007abd      0x6a9 .build/obj_kinesis_nguyenvietyen_kinesismod/usb_descriptor.o
                                        0xa5e (size before relaxing)
 .debug_str     0x0000000000008166       0x5e .build/obj_kinesis_nguyenvietyen_kinesismod/lib/lufa/LUFA/Drivers/USB/Core/AVR8/Device_AVR8.o
                                        0x230 (size before relaxing)
 .debug_str     0x00000000000081c4      0x4a3 .build/obj_kinesis_nguyenvietyen_kinesismod/lib/lufa/LUFA/Drivers/USB/Core/AVR8/EndpointStream_AVR8.o
                                        0x892 (size before relaxing)
 .debug_str     0x0000000000008667      0x254 .build/obj_kinesis_nguyenvietyen_kinesismod/lib/lufa/LUFA/Drivers/USB/Core/AVR8/Endpoint_AVR8.o
                                        0x652 (size before relaxing)
 .debug_str     0x00000000000088bb      0x1a1 .build/obj_kinesis_nguyenvietyen_kinesismod/lib/lufa/LUFA/Drivers/USB/Core/AVR8/USBController_AVR8.o
                                        0x591 (size before relaxing)
 .debug_str     0x0000000000008a5c      0x146 .build/obj_kinesis_nguyenvietyen_kinesismod/lib/lufa/LUFA/Drivers/USB/Core/AVR8/USBInterrupt_AVR8.o
                                        0x610 (size before relaxing)
 .debug_str     0x0000000000008ba2      0x40d .build/obj_kinesis_nguyenvietyen_kinesismod/lib/lufa/LUFA/Drivers/USB/Core/DeviceStandardReq.o
                                        0x9e1 (size before relaxing)
 .debug_str     0x0000000000008faf       0x59 .build/obj_kinesis_nguyenvietyen_kinesismod/lib/lufa/LUFA/Drivers/USB/Core/Events.o
                                        0x200 (size before relaxing)
 .debug_str     0x0000000000009008       0x45 .build/obj_kinesis_nguyenvietyen_kinesismod/lib/lufa/LUFA/Drivers/USB/Core/USBTask.o
                                        0x3b7 (size before relaxing)

.debug_loc      0x0000000000000000     0x770b
 *(.debug_loc)
 .debug_loc     0x0000000000000000      0x126 .build/obj_kinesis_nguyenvietyen_kinesismod/matrix.o
 .debug_loc     0x0000000000000126      0x111 .build/obj_kinesis_nguyenvietyen_kinesismod/quantum/keymap_introspection.o
 .debug_loc     0x0000000000000237      0xb70 .build/obj_kinesis_nguyenvietyen_kinesismod/quantum/quantum.o
 .debug_loc     0x0000000000000da7      0x11e .build/obj_kinesis_nguyenvietyen_kinesismod/quantum/led.o
 .debug_loc     0x0000000000000ec5      0xa7b .build/obj_kinesis_nguyenvietyen_kinesismod/quantum/action.o
 .debug_loc     0x0000000000001940      0x882 .build/obj_kinesis_nguyenvietyen_kinesismod/quantum/action_layer.o
 .debug_loc     0x00000000000021c2      0x4a8 .build/obj_kinesis_nguyenvietyen_kinesismod/quantum/action_tapping.o
 .debug_loc     0x000000000000266a      0x39c .build/obj_kinesis_nguyenvietyen_kinesismod/quantum/action_util.o
 .debug_loc     0x0000000000002a06      0x1c4 .build/obj_kinesis_nguyenvietyen_kinesismod/quantum/eeconfig.o
 .debug_loc     0x0000000000002bca      0x268 .build/obj_kinesis_nguyenvietyen_kinesismod/quantum/keyboard.o
 .debug_loc     0x0000000000002e32      0x3ce .build/obj_kinesis_nguyenvietyen_kinesismod/quantum/keymap_common.o
 .debug_loc     0x0000000000003200      0x16d .build/obj_kinesis_nguyenvietyen_kinesismod/quantum/keycode_config.o
 .debug_loc     0x000000000000336d       0x21 .build/obj_kinesis_nguyenvietyen_kinesismod/quantum/logging/sendchar.o
 .debug_loc     0x000000000000338e      0x1c0 .build/obj_kinesis_nguyenvietyen_kinesismod/quantum/matrix_common.o
 .debug_loc     0x000000000000354e      0x1c4 .build/obj_kinesis_nguyenvietyen_kinesismod/quantum/debounce/sym_defer_g.o
 .debug_loc     0x0000000000003712      0x107 .build/obj_kinesis_nguyenvietyen_kinesismod/platforms/avr/sleep_led.o
 .debug_loc     0x0000000000003819      0x16d .build/obj_kinesis_nguyenvietyen_kinesismod/quantum/process_keycode/process_caps_word.o
 .debug_loc     0x0000000000003986      0x13b .build/obj_kinesis_nguyenvietyen_kinesismod/quantum/process_keycode/process_grave_esc.o
 .debug_loc     0x0000000000003ac1       0xc9 .build/obj_kinesis_nguyenvietyen_kinesismod/quantum/process_keycode/process_magic.o
 .debug_loc     0x0000000000003b8a      0x32d .build/obj_kinesis_nguyenvietyen_kinesismod/quantum/mousekey.o
 .debug_loc     0x0000000000003eb7      0x368 .build/obj_kinesis_nguyenvietyen_kinesismod/quantum/process_keycode/process_space_cadet.o
 .debug_loc     0x000000000000421f      0x11e .build/obj_kinesis_nguyenvietyen_kinesismod/protocol/host.o
 .debug_loc     0x000000000000433d      0x359 .build/obj_kinesis_nguyenvietyen_kinesismod/protocol/report.o
 .debug_loc     0x0000000000004696       0xf9 .build/obj_kinesis_nguyenvietyen_kinesismod/protocol/usb_device_state.o
 .debug_loc     0x000000000000478f       0x41 .build/obj_kinesis_nguyenvietyen_kinesismod/platforms/suspend.o
 .debug_loc     0x00000000000047d0      0x21d .build/obj_kinesis_nguyenvietyen_kinesismod/platforms/avr/timer.o
 .debug_loc     0x00000000000049ed      0x435 .build/obj_kinesis_nguyenvietyen_kinesismod/lufa.o
 .debug_loc     0x0000000000004e22      0x30d .build/obj_kinesis_nguyenvietyen_kinesismod/usb_descriptor.o
 .debug_loc     0x000000000000512f     0x1a5d .build/obj_kinesis_nguyenvietyen_kinesismod/lib/lufa/LUFA/Drivers/USB/Core/AVR8/EndpointStream_AVR8.o
 .debug_loc     0x0000000000006b8c      0x38d .build/obj_kinesis_nguyenvietyen_kinesismod/lib/lufa/LUFA/Drivers/USB/Core/AVR8/Endpoint_AVR8.o
 .debug_loc     0x0000000000006f19       0xd5 .build/obj_kinesis_nguyenvietyen_kinesismod/lib/lufa/LUFA/Drivers/USB/Core/AVR8/USBController_AVR8.o
 .debug_loc     0x0000000000006fee      0x3f4 .build/obj_kinesis_nguyenvietyen_kinesismod/lib/lufa/LUFA/Drivers/USB/Core/AVR8/USBInterrupt_AVR8.o
 .debug_loc     0x00000000000073e2      0x2e0 .build/obj_kinesis_nguyenvietyen_kinesismod/lib/lufa/LUFA/Drivers/USB/Core/DeviceStandardReq.o
 .debug_loc     0x00000000000076c2       0x49 .build/obj_kinesis_nguyenvietyen_kinesismod/lib/lufa/LUFA/Drivers/USB/Core/USBTask.o

.debug_macinfo
 *(.debug_macinfo)

.debug_weaknames
 *(.debug_weaknames)

.debug_funcnames
 *(.debug_funcnames)

.debug_typenames
 *(.debug_typenames)

.debug_varnames
 *(.debug_varnames)

.debug_pubtypes
 *(.debug_pubtypes)

.debug_ranges   0x0000000000000000      0xf30
 *(.debug_ranges)
 .debug_ranges  0x0000000000000000       0x30 .build/obj_kinesis_nguyenvietyen_kinesismod/matrix.o
 .debug_ranges  0x0000000000000030       0x30 .build/obj_kinesis_nguyenvietyen_kinesismod/quantum/keymap_introspection.o
 .debug_ranges  0x0000000000000060      0x100 .build/obj_kinesis_nguyenvietyen_kinesismod/quantum/quantum.o
 .debug_ranges  0x0000000000000160       0x58 .build/obj_kinesis_nguyenvietyen_kinesismod/quantum/led.o
 .debug_ranges  0x00000000000001b8       0xd0 .build/obj_kinesis_nguyenvietyen_kinesismod/quantum/action.o
 .debug_ranges  0x0000000000000288      0x120 .build/obj_kinesis_nguyenvietyen_kinesismod/quantum/action_layer.o
 .debug_ranges  0x00000000000003a8       0x68 .build/obj_kinesis_nguyenvietyen_kinesismod/quantum/action_tapping.o
 .debug_ranges  0x0000000000000410      0x168 .build/obj_kinesis_nguyenvietyen_kinesismod/quantum/action_util.o
 .debug_ranges  0x0000000000000578       0xc8 .build/obj_kinesis_nguyenvietyen_kinesismod/quantum/eeconfig.o
 .debug_ranges  0x0000000000000640      0x100 .build/obj_kinesis_nguyenvietyen_kinesismod/quantum/keyboard.o
 .debug_ranges  0x0000000000000740       0x20 .build/obj_kinesis_nguyenvietyen_kinesismod/quantum/keymap_common.o
 .debug_ranges  0x0000000000000760       0x18 .build/obj_kinesis_nguyenvietyen_kinesismod/quantum/keycode_config.o
 .debug_ranges  0x0000000000000778       0x10 .build/obj_kinesis_nguyenvietyen_kinesismod/quantum/logging/sendchar.o
 .debug_ranges  0x0000000000000788       0x80 .build/obj_kinesis_nguyenvietyen_kinesismod/quantum/matrix_common.o
 .debug_ranges  0x0000000000000808       0x38 .build/obj_kinesis_nguyenvietyen_kinesismod/quantum/debounce/sym_defer_g.o
 .debug_ranges  0x0000000000000840       0x18 .build/obj_kinesis_nguyenvietyen_kinesismod/quantum/main.o
 .debug_ranges  0x0000000000000858       0x10 .build/obj_kinesis_nguyenvietyen_kinesismod/platforms/avr/printf.o
 .debug_ranges  0x0000000000000868       0x30 .build/obj_kinesis_nguyenvietyen_kinesismod/platforms/avr/sleep_led.o
 .debug_ranges  0x0000000000000898       0x18 .build/obj_kinesis_nguyenvietyen_kinesismod/quantum/process_keycode/process_caps_word.o
 .debug_ranges  0x00000000000008b0       0x40 .build/obj_kinesis_nguyenvietyen_kinesismod/quantum/caps_word.o
 .debug_ranges  0x00000000000008f0       0x10 .build/obj_kinesis_nguyenvietyen_kinesismod/quantum/process_keycode/process_grave_esc.o
 .debug_ranges  0x0000000000000900       0x10 .build/obj_kinesis_nguyenvietyen_kinesismod/quantum/process_keycode/process_magic.o
 .debug_ranges  0x0000000000000910       0x58 .build/obj_kinesis_nguyenvietyen_kinesismod/quantum/mousekey.o
 .debug_ranges  0x0000000000000968       0x20 .build/obj_kinesis_nguyenvietyen_kinesismod/quantum/process_keycode/process_space_cadet.o
 .debug_ranges  0x0000000000000988       0x68 .build/obj_kinesis_nguyenvietyen_kinesismod/protocol/host.o
 .debug_ranges  0x00000000000009f0       0x78 .build/obj_kinesis_nguyenvietyen_kinesismod/protocol/report.o
 .debug_ranges  0x0000000000000a68       0x30 .build/obj_kinesis_nguyenvietyen_kinesismod/protocol/usb_device_state.o
 .debug_ranges  0x0000000000000a98       0x28 .build/obj_kinesis_nguyenvietyen_kinesismod/platforms/suspend.o
 .debug_ranges  0x0000000000000ac0       0x10 .build/obj_kinesis_nguyenvietyen_kinesismod/platforms/avr/platform.o
 .debug_ranges  0x0000000000000ad0       0x18 .build/obj_kinesis_nguyenvietyen_kinesismod/platforms/avr/suspend.o
 .debug_ranges  0x0000000000000ae8       0x40 .build/obj_kinesis_nguyenvietyen_kinesismod/platforms/avr/timer.o
 .debug_ranges  0x0000000000000b28       0x18 .build/obj_kinesis_nguyenvietyen_kinesismod/platforms/avr/bootloaders/caterina.o
 .debug_ranges  0x0000000000000b40       0xa8 .build/obj_kinesis_nguyenvietyen_kinesismod/lufa.o
 .debug_ranges  0x0000000000000be8       0x28 .build/obj_kinesis_nguyenvietyen_kinesismod/usb_descriptor.o
 .debug_ranges  0x0000000000000c10       0x10 .build/obj_kinesis_nguyenvietyen_kinesismod/lib/lufa/LUFA/Drivers/USB/Core/AVR8/Device_AVR8.o
 .debug_ranges  0x0000000000000c20      0x1f8 .build/obj_kinesis_nguyenvietyen_kinesismod/lib/lufa/LUFA/Drivers/USB/Core/AVR8/EndpointStream_AVR8.o
 .debug_ranges  0x0000000000000e18       0x78 .build/obj_kinesis_nguyenvietyen_kinesismod/lib/lufa/LUFA/Drivers/USB/Core/AVR8/Endpoint_AVR8.o
 .debug_ranges  0x0000000000000e90       0x20 .build/obj_kinesis_nguyenvietyen_kinesismod/lib/lufa/LUFA/Drivers/USB/Core/AVR8/USBController_AVR8.o
 .debug_ranges  0x0000000000000eb0       0x28 .build/obj_kinesis_nguyenvietyen_kinesismod/lib/lufa/LUFA/Drivers/USB/Core/AVR8/USBInterrupt_AVR8.o
 .debug_ranges  0x0000000000000ed8       0x28 .build/obj_kinesis_nguyenvietyen_kinesismod/lib/lufa/LUFA/Drivers/USB/Core/DeviceStandardReq.o
 .debug_ranges  0x0000000000000f00       0x20 .build/obj_kinesis_nguyenvietyen_kinesismod/lib/lufa/LUFA/Drivers/USB/Core/Events.o
 .debug_ranges  0x0000000000000f20       0x10 .build/obj_kinesis_nguyenvietyen_kinesismod/lib/lufa/LUFA/Drivers/USB/Core/USBTask.o

.debug_macro
 *(.debug_macro)
OUTPUT(.build/kinesis_nguyenvietyen_kinesismod.elf elf32-avr)
LOAD linker stubs

Cross Reference Table

Symbol                                            File
CALLBACK_HIDParser_FilterHIDReportItem            .build/obj_kinesis_nguyenvietyen_kinesismod/lib/lufa/LUFA/Drivers/USB/Class/Common/HIDParser.o
CALLBACK_USB_GetDescriptor                        .build/obj_kinesis_nguyenvietyen_kinesismod/lufa.o
                                                  .build/obj_kinesis_nguyenvietyen_kinesismod/lib/lufa/LUFA/Drivers/USB/Core/DeviceStandardReq.o
ConfigurationDescriptor                           .build/obj_kinesis_nguyenvietyen_kinesismod/usb_descriptor.o
DeviceDescriptor                                  .build/obj_kinesis_nguyenvietyen_kinesismod/usb_descriptor.o
EVENT_USB_Device_ConfigurationChanged             .build/obj_kinesis_nguyenvietyen_kinesismod/lufa.o
                                                  .build/obj_kinesis_nguyenvietyen_kinesismod/lib/lufa/LUFA/Drivers/USB/Core/DeviceStandardReq.o
EVENT_USB_Device_Connect                          .build/obj_kinesis_nguyenvietyen_kinesismod/lufa.o
                                                  .build/obj_kinesis_nguyenvietyen_kinesismod/lib/lufa/LUFA/Drivers/USB/Core/AVR8/USBInterrupt_AVR8.o
EVENT_USB_Device_ControlRequest                   .build/obj_kinesis_nguyenvietyen_kinesismod/lufa.o
                                                  .build/obj_kinesis_nguyenvietyen_kinesismod/lib/lufa/LUFA/Drivers/USB/Core/DeviceStandardReq.o
EVENT_USB_Device_Disconnect                       .build/obj_kinesis_nguyenvietyen_kinesismod/lufa.o
                                                  .build/obj_kinesis_nguyenvietyen_kinesismod/lib/lufa/LUFA/Drivers/USB/Core/AVR8/USBInterrupt_AVR8.o
EVENT_USB_Device_Reset                            .build/obj_kinesis_nguyenvietyen_kinesismod/lufa.o
                                                  .build/obj_kinesis_nguyenvietyen_kinesismod/lib/lufa/LUFA/Drivers/USB/Core/AVR8/USBInterrupt_AVR8.o
EVENT_USB_Device_StartOfFrame                     .build/obj_kinesis_nguyenvietyen_kinesismod/lib/lufa/LUFA/Drivers/USB/Core/Events.o
                                                  .build/obj_kinesis_nguyenvietyen_kinesismod/lib/lufa/LUFA/Drivers/USB/Core/AVR8/USBInterrupt_AVR8.o
EVENT_USB_Device_Suspend                          .build/obj_kinesis_nguyenvietyen_kinesismod/lufa.o
                                                  .build/obj_kinesis_nguyenvietyen_kinesismod/lib/lufa/LUFA/Drivers/USB/Core/AVR8/USBInterrupt_AVR8.o
EVENT_USB_Device_WakeUp                           .build/obj_kinesis_nguyenvietyen_kinesismod/lufa.o
                                                  .build/obj_kinesis_nguyenvietyen_kinesismod/lib/lufa/LUFA/Drivers/USB/Core/AVR8/USBInterrupt_AVR8.o
Endpoint_ClearEndpoints                           .build/obj_kinesis_nguyenvietyen_kinesismod/lib/lufa/LUFA/Drivers/USB/Core/AVR8/Endpoint_AVR8.o
Endpoint_ClearStatusStage                         .build/obj_kinesis_nguyenvietyen_kinesismod/lib/lufa/LUFA/Drivers/USB/Core/AVR8/Endpoint_AVR8.o
                                                  .build/obj_kinesis_nguyenvietyen_kinesismod/lib/lufa/LUFA/Drivers/USB/Core/DeviceStandardReq.o
                                                  .build/obj_kinesis_nguyenvietyen_kinesismod/lufa.o
Endpoint_ConfigureEndpointTable                   .build/obj_kinesis_nguyenvietyen_kinesismod/lib/lufa/LUFA/Drivers/USB/Core/AVR8/Endpoint_AVR8.o
Endpoint_ConfigureEndpoint_Prv                    .build/obj_kinesis_nguyenvietyen_kinesismod/lib/lufa/LUFA/Drivers/USB/Core/AVR8/Endpoint_AVR8.o
                                                  .build/obj_kinesis_nguyenvietyen_kinesismod/lib/lufa/LUFA/Drivers/USB/Core/AVR8/USBInterrupt_AVR8.o
                                                  .build/obj_kinesis_nguyenvietyen_kinesismod/lib/lufa/LUFA/Drivers/USB/Core/AVR8/USBController_AVR8.o
                                                  .build/obj_kinesis_nguyenvietyen_kinesismod/lufa.o
Endpoint_Discard_Stream                           .build/obj_kinesis_nguyenvietyen_kinesismod/lib/lufa/LUFA/Drivers/USB/Core/AVR8/EndpointStream_AVR8.o
Endpoint_Null_Stream                              .build/obj_kinesis_nguyenvietyen_kinesismod/lib/lufa/LUFA/Drivers/USB/Core/AVR8/EndpointStream_AVR8.o
Endpoint_Read_Control_EStream_BE                  .build/obj_kinesis_nguyenvietyen_kinesismod/lib/lufa/LUFA/Drivers/USB/Core/AVR8/EndpointStream_AVR8.o
Endpoint_Read_Control_EStream_LE                  .build/obj_kinesis_nguyenvietyen_kinesismod/lib/lufa/LUFA/Drivers/USB/Core/AVR8/EndpointStream_AVR8.o
Endpoint_Read_Control_Stream_BE                   .build/obj_kinesis_nguyenvietyen_kinesismod/lib/lufa/LUFA/Drivers/USB/Core/AVR8/EndpointStream_AVR8.o
Endpoint_Read_Control_Stream_LE                   .build/obj_kinesis_nguyenvietyen_kinesismod/lib/lufa/LUFA/Drivers/USB/Core/AVR8/EndpointStream_AVR8.o
Endpoint_Read_EStream_BE                          .build/obj_kinesis_nguyenvietyen_kinesismod/lib/lufa/LUFA/Drivers/USB/Core/AVR8/EndpointStream_AVR8.o
Endpoint_Read_EStream_LE                          .build/obj_kinesis_nguyenvietyen_kinesismod/lib/lufa/LUFA/Drivers/USB/Core/AVR8/EndpointStream_AVR8.o
Endpoint_Read_Stream_BE                           .build/obj_kinesis_nguyenvietyen_kinesismod/lib/lufa/LUFA/Drivers/USB/Core/AVR8/EndpointStream_AVR8.o
Endpoint_Read_Stream_LE                           .build/obj_kinesis_nguyenvietyen_kinesismod/lib/lufa/LUFA/Drivers/USB/Core/AVR8/EndpointStream_AVR8.o
Endpoint_WaitUntilReady                           .build/obj_kinesis_nguyenvietyen_kinesismod/lib/lufa/LUFA/Drivers/USB/Core/AVR8/Endpoint_AVR8.o
                                                  .build/obj_kinesis_nguyenvietyen_kinesismod/lib/lufa/LUFA/Drivers/USB/Core/AVR8/EndpointStream_AVR8.o
Endpoint_Write_Control_EStream_BE                 .build/obj_kinesis_nguyenvietyen_kinesismod/lib/lufa/LUFA/Drivers/USB/Core/AVR8/EndpointStream_AVR8.o
Endpoint_Write_Control_EStream_LE                 .build/obj_kinesis_nguyenvietyen_kinesismod/lib/lufa/LUFA/Drivers/USB/Core/AVR8/EndpointStream_AVR8.o
Endpoint_Write_Control_PStream_BE                 .build/obj_kinesis_nguyenvietyen_kinesismod/lib/lufa/LUFA/Drivers/USB/Core/AVR8/EndpointStream_AVR8.o
Endpoint_Write_Control_PStream_LE                 .build/obj_kinesis_nguyenvietyen_kinesismod/lib/lufa/LUFA/Drivers/USB/Core/AVR8/EndpointStream_AVR8.o
                                                  .build/obj_kinesis_nguyenvietyen_kinesismod/lib/lufa/LUFA/Drivers/USB/Core/DeviceStandardReq.o
Endpoint_Write_Control_Stream_BE                  .build/obj_kinesis_nguyenvietyen_kinesismod/lib/lufa/LUFA/Drivers/USB/Core/AVR8/EndpointStream_AVR8.o
Endpoint_Write_Control_Stream_LE                  .build/obj_kinesis_nguyenvietyen_kinesismod/lib/lufa/LUFA/Drivers/USB/Core/AVR8/EndpointStream_AVR8.o
                                                  .build/obj_kinesis_nguyenvietyen_kinesismod/lib/lufa/LUFA/Drivers/USB/Core/DeviceStandardReq.o
                                                  .build/obj_kinesis_nguyenvietyen_kinesismod/lufa.o
Endpoint_Write_EStream_BE                         .build/obj_kinesis_nguyenvietyen_kinesismod/lib/lufa/LUFA/Drivers/USB/Core/AVR8/EndpointStream_AVR8.o
Endpoint_Write_EStream_LE                         .build/obj_kinesis_nguyenvietyen_kinesismod/lib/lufa/LUFA/Drivers/USB/Core/AVR8/EndpointStream_AVR8.o
Endpoint_Write_PStream_BE                         .build/obj_kinesis_nguyenvietyen_kinesismod/lib/lufa/LUFA/Drivers/USB/Core/AVR8/EndpointStream_AVR8.o
Endpoint_Write_PStream_LE                         .build/obj_kinesis_nguyenvietyen_kinesismod/lib/lufa/LUFA/Drivers/USB/Core/AVR8/EndpointStream_AVR8.o
Endpoint_Write_Stream_BE                          .build/obj_kinesis_nguyenvietyen_kinesismod/lib/lufa/LUFA/Drivers/USB/Core/AVR8/EndpointStream_AVR8.o
Endpoint_Write_Stream_LE                          .build/obj_kinesis_nguyenvietyen_kinesismod/lib/lufa/LUFA/Drivers/USB/Core/AVR8/EndpointStream_AVR8.o
                                                  .build/obj_kinesis_nguyenvietyen_kinesismod/lufa.o
KeyboardReport                                    .build/obj_kinesis_nguyenvietyen_kinesismod/usb_descriptor.o
LanguageString                                    .build/obj_kinesis_nguyenvietyen_kinesismod/usb_descriptor.o
ManufacturerString                                .build/obj_kinesis_nguyenvietyen_kinesismod/usb_descriptor.o
ProductString                                     .build/obj_kinesis_nguyenvietyen_kinesismod/usb_descriptor.o
SharedReport                                      .build/obj_kinesis_nguyenvietyen_kinesismod/usb_descriptor.o
USB_ControlRequest                                .build/obj_kinesis_nguyenvietyen_kinesismod/lib/lufa/LUFA/Drivers/USB/Core/USBTask.o
                                                  .build/obj_kinesis_nguyenvietyen_kinesismod/lib/lufa/LUFA/Drivers/USB/Core/DeviceStandardReq.o
                                                  .build/obj_kinesis_nguyenvietyen_kinesismod/lib/lufa/LUFA/Drivers/USB/Core/AVR8/Endpoint_AVR8.o
                                                  .build/obj_kinesis_nguyenvietyen_kinesismod/lib/lufa/LUFA/Drivers/USB/Core/AVR8/EndpointStream_AVR8.o
                                                  .build/obj_kinesis_nguyenvietyen_kinesismod/lufa.o
USB_DeviceState                                   .build/obj_kinesis_nguyenvietyen_kinesismod/lib/lufa/LUFA/Drivers/USB/Core/USBTask.o
                                                  .build/obj_kinesis_nguyenvietyen_kinesismod/protocol/lufa/usb_util.o
                                                  .build/obj_kinesis_nguyenvietyen_kinesismod/lib/lufa/LUFA/Drivers/USB/Core/DeviceStandardReq.o
                                                  .build/obj_kinesis_nguyenvietyen_kinesismod/lib/lufa/LUFA/Drivers/USB/Core/AVR8/USBInterrupt_AVR8.o
                                                  .build/obj_kinesis_nguyenvietyen_kinesismod/lib/lufa/LUFA/Drivers/USB/Core/AVR8/USBController_AVR8.o
                                                  .build/obj_kinesis_nguyenvietyen_kinesismod/lib/lufa/LUFA/Drivers/USB/Core/AVR8/Endpoint_AVR8.o
                                                  .build/obj_kinesis_nguyenvietyen_kinesismod/lib/lufa/LUFA/Drivers/USB/Core/AVR8/EndpointStream_AVR8.o
                                                  .build/obj_kinesis_nguyenvietyen_kinesismod/lufa.o
                                                  .build/obj_kinesis_nguyenvietyen_kinesismod/platforms/avr/suspend.o
USB_Device_ConfigurationNumber                    .build/obj_kinesis_nguyenvietyen_kinesismod/lib/lufa/LUFA/Drivers/USB/Core/DeviceStandardReq.o
                                                  .build/obj_kinesis_nguyenvietyen_kinesismod/lib/lufa/LUFA/Drivers/USB/Core/AVR8/USBInterrupt_AVR8.o
                                                  .build/obj_kinesis_nguyenvietyen_kinesismod/lib/lufa/LUFA/Drivers/USB/Core/AVR8/USBController_AVR8.o
                                                  .build/obj_kinesis_nguyenvietyen_kinesismod/lufa.o
USB_Device_CurrentlySelfPowered                   .build/obj_kinesis_nguyenvietyen_kinesismod/lib/lufa/LUFA/Drivers/USB/Core/DeviceStandardReq.o
                                                  .build/obj_kinesis_nguyenvietyen_kinesismod/lib/lufa/LUFA/Drivers/USB/Core/AVR8/USBController_AVR8.o
USB_Device_ProcessControlRequest                  .build/obj_kinesis_nguyenvietyen_kinesismod/lib/lufa/LUFA/Drivers/USB/Core/DeviceStandardReq.o
                                                  .build/obj_kinesis_nguyenvietyen_kinesismod/lib/lufa/LUFA/Drivers/USB/Core/USBTask.o
                                                  .build/obj_kinesis_nguyenvietyen_kinesismod/lib/lufa/LUFA/Drivers/USB/Core/AVR8/USBInterrupt_AVR8.o
USB_Device_RemoteWakeupEnabled                    .build/obj_kinesis_nguyenvietyen_kinesismod/lib/lufa/LUFA/Drivers/USB/Core/DeviceStandardReq.o
                                                  .build/obj_kinesis_nguyenvietyen_kinesismod/lib/lufa/LUFA/Drivers/USB/Core/AVR8/USBController_AVR8.o
                                                  .build/obj_kinesis_nguyenvietyen_kinesismod/lufa.o
USB_Device_SendRemoteWakeup                       .build/obj_kinesis_nguyenvietyen_kinesismod/lib/lufa/LUFA/Drivers/USB/Core/AVR8/Device_AVR8.o
                                                  .build/obj_kinesis_nguyenvietyen_kinesismod/lufa.o
USB_Disable                                       .build/obj_kinesis_nguyenvietyen_kinesismod/lib/lufa/LUFA/Drivers/USB/Core/AVR8/USBController_AVR8.o
                                                  .build/obj_kinesis_nguyenvietyen_kinesismod/protocol/lufa/usb_util.o
                                                  .build/obj_kinesis_nguyenvietyen_kinesismod/lufa.o
USB_Event_Stub                                    .build/obj_kinesis_nguyenvietyen_kinesismod/lib/lufa/LUFA/Drivers/USB/Core/Events.o
USB_Event_Stub_2                                  .build/obj_kinesis_nguyenvietyen_kinesismod/lib/lufa/LUFA/Drivers/USB/Core/Events.o
USB_Event_Stub_3                                  .build/obj_kinesis_nguyenvietyen_kinesismod/lib/lufa/LUFA/Drivers/USB/Core/Events.o
USB_GetHIDReportItemInfo                          .build/obj_kinesis_nguyenvietyen_kinesismod/lib/lufa/LUFA/Drivers/USB/Class/Common/HIDParser.o
USB_GetHIDReportSize                              .build/obj_kinesis_nguyenvietyen_kinesismod/lib/lufa/LUFA/Drivers/USB/Class/Common/HIDParser.o
USB_GetNextDescriptorComp                         .build/obj_kinesis_nguyenvietyen_kinesismod/lib/lufa/LUFA/Drivers/USB/Core/ConfigDescriptors.o
USB_GetNextDescriptorOfType                       .build/obj_kinesis_nguyenvietyen_kinesismod/lib/lufa/LUFA/Drivers/USB/Core/ConfigDescriptors.o
USB_GetNextDescriptorOfTypeAfter                  .build/obj_kinesis_nguyenvietyen_kinesismod/lib/lufa/LUFA/Drivers/USB/Core/ConfigDescriptors.o
USB_GetNextDescriptorOfTypeBefore                 .build/obj_kinesis_nguyenvietyen_kinesismod/lib/lufa/LUFA/Drivers/USB/Core/ConfigDescriptors.o
USB_INT_ClearAllInterrupts                        .build/obj_kinesis_nguyenvietyen_kinesismod/lib/lufa/LUFA/Drivers/USB/Core/AVR8/USBInterrupt_AVR8.o
                                                  .build/obj_kinesis_nguyenvietyen_kinesismod/lib/lufa/LUFA/Drivers/USB/Core/AVR8/USBController_AVR8.o
USB_INT_DisableAllInterrupts                      .build/obj_kinesis_nguyenvietyen_kinesismod/lib/lufa/LUFA/Drivers/USB/Core/AVR8/USBInterrupt_AVR8.o
                                                  .build/obj_kinesis_nguyenvietyen_kinesismod/lib/lufa/LUFA/Drivers/USB/Core/AVR8/USBController_AVR8.o
USB_Init                                          .build/obj_kinesis_nguyenvietyen_kinesismod/lib/lufa/LUFA/Drivers/USB/Core/AVR8/USBController_AVR8.o
                                                  .build/obj_kinesis_nguyenvietyen_kinesismod/lufa.o
USB_IsInitialized                                 .build/obj_kinesis_nguyenvietyen_kinesismod/lib/lufa/LUFA/Drivers/USB/Core/USBTask.o
                                                  .build/obj_kinesis_nguyenvietyen_kinesismod/lib/lufa/LUFA/Drivers/USB/Core/AVR8/USBController_AVR8.o
                                                  .build/obj_kinesis_nguyenvietyen_kinesismod/lufa.o
USB_ProcessHIDReport                              .build/obj_kinesis_nguyenvietyen_kinesismod/lib/lufa/LUFA/Drivers/USB/Class/Common/HIDParser.o
USB_ResetInterface                                .build/obj_kinesis_nguyenvietyen_kinesismod/lib/lufa/LUFA/Drivers/USB/Core/AVR8/USBController_AVR8.o
USB_SetHIDReportItemInfo                          .build/obj_kinesis_nguyenvietyen_kinesismod/lib/lufa/LUFA/Drivers/USB/Class/Common/HIDParser.o
USB_USBTask                                       .build/obj_kinesis_nguyenvietyen_kinesismod/lib/lufa/LUFA/Drivers/USB/Core/USBTask.o
                                                  .build/obj_kinesis_nguyenvietyen_kinesismod/lufa.o
__DATA_REGION_LENGTH__                            /usr/lib/gcc/avr/5.4.0/../../../avr/lib/avr5/crtatmega32u4.o
__DATA_REGION_ORIGIN__                            /usr/lib/gcc/avr/5.4.0/../../../avr/lib/avr5/crtatmega32u4.o
__EEPROM_REGION_LENGTH__                          /usr/lib/gcc/avr/5.4.0/../../../avr/lib/avr5/crtatmega32u4.o
__FUSE_REGION_LENGTH__                            /usr/lib/gcc/avr/5.4.0/../../../avr/lib/avr5/crtatmega32u4.o
__TEXT_REGION_LENGTH__                            /usr/lib/gcc/avr/5.4.0/../../../avr/lib/avr5/crtatmega32u4.o
__bad_interrupt                                   /usr/lib/gcc/avr/5.4.0/../../../avr/lib/avr5/crtatmega32u4.o
__bss_end                                         /usr/lib/gcc/avr/5.4.0/avr5/libgcc.a(_clear_bss.o)
__bss_start                                       /usr/lib/gcc/avr/5.4.0/avr5/libgcc.a(_clear_bss.o)
__data_end                                        /usr/lib/gcc/avr/5.4.0/avr5/libgcc.a(_copy_data.o)
__data_load_start                                 /usr/lib/gcc/avr/5.4.0/avr5/libgcc.a(_copy_data.o)
__data_start                                      /usr/lib/gcc/avr/5.4.0/avr5/libgcc.a(_copy_data.o)
__divmodhi4                                       /usr/lib/gcc/avr/5.4.0/avr5/libgcc.a(_divmodhi4.o)
                                                  .build/obj_kinesis_nguyenvietyen_kinesismod/quantum/mousekey.o
__do_clear_bss                                    /usr/lib/gcc/avr/5.4.0/avr5/libgcc.a(_clear_bss.o)
                                                  .build/obj_kinesis_nguyenvietyen_kinesismod/lib/lufa/LUFA/Drivers/USB/Core/USBTask.o
                                                  .build/obj_kinesis_nguyenvietyen_kinesismod/lib/lufa/LUFA/Drivers/USB/Core/DeviceStandardReq.o
                                                  .build/obj_kinesis_nguyenvietyen_kinesismod/lufa.o
                                                  .build/obj_kinesis_nguyenvietyen_kinesismod/platforms/avr/timer.o
                                                  .build/obj_kinesis_nguyenvietyen_kinesismod/protocol/usb_device_state.o
                                                  .build/obj_kinesis_nguyenvietyen_kinesismod/protocol/host.o
                                                  .build/obj_kinesis_nguyenvietyen_kinesismod/quantum/process_keycode/process_space_cadet.o
                                                  .build/obj_kinesis_nguyenvietyen_kinesismod/quantum/mousekey.o
                                                  .build/obj_kinesis_nguyenvietyen_kinesismod/quantum/process_keycode/process_grave_esc.o
                                                  .build/obj_kinesis_nguyenvietyen_kinesismod/quantum/caps_word.o
                                                  .build/obj_kinesis_nguyenvietyen_kinesismod/platforms/avr/sleep_led.o
                                                  .build/obj_kinesis_nguyenvietyen_kinesismod/quantum/debounce/sym_defer_g.o
                                                  .build/obj_kinesis_nguyenvietyen_kinesismod/quantum/matrix_common.o
                                                  .build/obj_kinesis_nguyenvietyen_kinesismod/quantum/logging/debug.o
                                                  .build/obj_kinesis_nguyenvietyen_kinesismod/quantum/keycode_config.o
                                                  .build/obj_kinesis_nguyenvietyen_kinesismod/quantum/keyboard.o
                                                  .build/obj_kinesis_nguyenvietyen_kinesismod/quantum/action_util.o
                                                  .build/obj_kinesis_nguyenvietyen_kinesismod/quantum/action_tapping.o
                                                  .build/obj_kinesis_nguyenvietyen_kinesismod/quantum/action_layer.o
                                                  .build/obj_kinesis_nguyenvietyen_kinesismod/quantum/action.o
                                                  .build/obj_kinesis_nguyenvietyen_kinesismod/quantum/led.o
                                                  .build/obj_kinesis_nguyenvietyen_kinesismod/quantum/quantum.o
__do_copy_data                                    /usr/lib/gcc/avr/5.4.0/avr5/libgcc.a(_copy_data.o)
                                                  .build/obj_kinesis_nguyenvietyen_kinesismod/lufa.o
                                                  .build/obj_kinesis_nguyenvietyen_kinesismod/quantum/mousekey.o
                                                  .build/obj_kinesis_nguyenvietyen_kinesismod/quantum/keymap_common.o
                                                  .build/obj_kinesis_nguyenvietyen_kinesismod/quantum/action_util.o
                                                  .build/obj_kinesis_nguyenvietyen_kinesismod/quantum/action.o
                                                  .build/obj_kinesis_nguyenvietyen_kinesismod/quantum/quantum.o
__epilogue_restores__                             /usr/lib/gcc/avr/5.4.0/avr5/libgcc.a(_epilogue.o)
                                                  .build/obj_kinesis_nguyenvietyen_kinesismod/lib/lufa/LUFA/Drivers/USB/Core/DeviceStandardReq.o
                                                  .build/obj_kinesis_nguyenvietyen_kinesismod/lib/lufa/LUFA/Drivers/USB/Core/ConfigDescriptors.o
                                                  .build/obj_kinesis_nguyenvietyen_kinesismod/lib/lufa/LUFA/Drivers/USB/Core/AVR8/EndpointStream_AVR8.o
                                                  .build/obj_kinesis_nguyenvietyen_kinesismod/lib/lufa/LUFA/Drivers/USB/Class/Common/HIDParser.o
                                                  .build/obj_kinesis_nguyenvietyen_kinesismod/platforms/avr/hardware_id.o
                                                  .build/obj_kinesis_nguyenvietyen_kinesismod/protocol/host.o
                                                  .build/obj_kinesis_nguyenvietyen_kinesismod/quantum/send_string/send_string.o
                                                  .build/obj_kinesis_nguyenvietyen_kinesismod/quantum/mousekey.o
                                                  .build/obj_kinesis_nguyenvietyen_kinesismod/quantum/process_keycode/process_caps_word.o
                                                  .build/obj_kinesis_nguyenvietyen_kinesismod/quantum/debounce/sym_defer_g.o
                                                  .build/obj_kinesis_nguyenvietyen_kinesismod/quantum/keyboard.o
                                                  .build/obj_kinesis_nguyenvietyen_kinesismod/quantum/eeconfig.o
                                                  .build/obj_kinesis_nguyenvietyen_kinesismod/quantum/action_tapping.o
                                                  .build/obj_kinesis_nguyenvietyen_kinesismod/quantum/action_layer.o
                                                  .build/obj_kinesis_nguyenvietyen_kinesismod/quantum/action.o
                                                  .build/obj_kinesis_nguyenvietyen_kinesismod/quantum/bitwise.o
                                                  .build/obj_kinesis_nguyenvietyen_kinesismod/quantum/quantum.o
__heap_end                                        /usr/lib/gcc/avr/5.4.0/../../../avr/lib/avr5/crtatmega32u4.o
__init                                            /usr/lib/gcc/avr/5.4.0/../../../avr/lib/avr5/crtatmega32u4.o
__prologue_saves__                                /usr/lib/gcc/avr/5.4.0/avr5/libgcc.a(_prologue.o)
                                                  .build/obj_kinesis_nguyenvietyen_kinesismod/lib/lufa/LUFA/Drivers/USB/Core/DeviceStandardReq.o
                                                  .build/obj_kinesis_nguyenvietyen_kinesismod/lib/lufa/LUFA/Drivers/USB/Core/ConfigDescriptors.o
                                                  .build/obj_kinesis_nguyenvietyen_kinesismod/lib/lufa/LUFA/Drivers/USB/Core/AVR8/EndpointStream_AVR8.o
                                                  .build/obj_kinesis_nguyenvietyen_kinesismod/lib/lufa/LUFA/Drivers/USB/Class/Common/HIDParser.o
                                                  .build/obj_kinesis_nguyenvietyen_kinesismod/platforms/avr/hardware_id.o
                                                  .build/obj_kinesis_nguyenvietyen_kinesismod/protocol/host.o
                                                  .build/obj_kinesis_nguyenvietyen_kinesismod/quantum/mousekey.o
                                                  .build/obj_kinesis_nguyenvietyen_kinesismod/quantum/process_keycode/process_caps_word.o
                                                  .build/obj_kinesis_nguyenvietyen_kinesismod/quantum/keyboard.o
                                                  .build/obj_kinesis_nguyenvietyen_kinesismod/quantum/eeconfig.o
                                                  .build/obj_kinesis_nguyenvietyen_kinesismod/quantum/action_tapping.o
                                                  .build/obj_kinesis_nguyenvietyen_kinesismod/quantum/action_layer.o
                                                  .build/obj_kinesis_nguyenvietyen_kinesismod/quantum/action.o
                                                  .build/obj_kinesis_nguyenvietyen_kinesismod/quantum/bitwise.o
                                                  .build/obj_kinesis_nguyenvietyen_kinesismod/quantum/quantum.o
__stack                                           /usr/lib/gcc/avr/5.4.0/../../../avr/lib/avr5/crtatmega32u4.o
__tablejump2__                                    /usr/lib/gcc/avr/5.4.0/avr5/libgcc.a(_tablejump2.o)
                                                  .build/obj_kinesis_nguyenvietyen_kinesismod/lib/lufa/LUFA/Drivers/USB/Core/DeviceStandardReq.o
                                                  .build/obj_kinesis_nguyenvietyen_kinesismod/quantum/process_keycode/process_space_cadet.o
                                                  .build/obj_kinesis_nguyenvietyen_kinesismod/quantum/process_keycode/process_magic.o
                                                  .build/obj_kinesis_nguyenvietyen_kinesismod/quantum/action.o
__udivmodhi4                                      /usr/lib/gcc/avr/5.4.0/avr5/libgcc.a(_udivmodhi4.o)
                                                  /usr/lib/gcc/avr/5.4.0/avr5/libgcc.a(_divmodhi4.o)
__udivmodsi4                                      /usr/lib/gcc/avr/5.4.0/avr5/libgcc.a(_udivmodsi4.o)
                                                  .build/obj_kinesis_nguyenvietyen_kinesismod/quantum/quantum.o
__vector_1                                        /usr/lib/gcc/avr/5.4.0/../../../avr/lib/avr5/crtatmega32u4.o
__vector_10                                       .build/obj_kinesis_nguyenvietyen_kinesismod/lib/lufa/LUFA/Drivers/USB/Core/AVR8/USBInterrupt_AVR8.o
                                                  /usr/lib/gcc/avr/5.4.0/../../../avr/lib/avr5/crtatmega32u4.o
__vector_11                                       .build/obj_kinesis_nguyenvietyen_kinesismod/lib/lufa/LUFA/Drivers/USB/Core/AVR8/USBInterrupt_AVR8.o
                                                  /usr/lib/gcc/avr/5.4.0/../../../avr/lib/avr5/crtatmega32u4.o
__vector_12                                       /usr/lib/gcc/avr/5.4.0/../../../avr/lib/avr5/crtatmega32u4.o
__vector_13                                       /usr/lib/gcc/avr/5.4.0/../../../avr/lib/avr5/crtatmega32u4.o
__vector_14                                       /usr/lib/gcc/avr/5.4.0/../../../avr/lib/avr5/crtatmega32u4.o
__vector_15                                       /usr/lib/gcc/avr/5.4.0/../../../avr/lib/avr5/crtatmega32u4.o
__vector_16                                       /usr/lib/gcc/avr/5.4.0/../../../avr/lib/avr5/crtatmega32u4.o
__vector_17                                       .build/obj_kinesis_nguyenvietyen_kinesismod/platforms/avr/sleep_led.o
                                                  /usr/lib/gcc/avr/5.4.0/../../../avr/lib/avr5/crtatmega32u4.o
__vector_18                                       /usr/lib/gcc/avr/5.4.0/../../../avr/lib/avr5/crtatmega32u4.o
__vector_19                                       /usr/lib/gcc/avr/5.4.0/../../../avr/lib/avr5/crtatmega32u4.o
__vector_2                                        /usr/lib/gcc/avr/5.4.0/../../../avr/lib/avr5/crtatmega32u4.o
__vector_20                                       /usr/lib/gcc/avr/5.4.0/../../../avr/lib/avr5/crtatmega32u4.o
__vector_21                                       .build/obj_kinesis_nguyenvietyen_kinesismod/platforms/avr/timer.o
                                                  /usr/lib/gcc/avr/5.4.0/../../../avr/lib/avr5/crtatmega32u4.o
__vector_22                                       /usr/lib/gcc/avr/5.4.0/../../../avr/lib/avr5/crtatmega32u4.o
__vector_23                                       /usr/lib/gcc/avr/5.4.0/../../../avr/lib/avr5/crtatmega32u4.o
__vector_24                                       /usr/lib/gcc/avr/5.4.0/../../../avr/lib/avr5/crtatmega32u4.o
__vector_25                                       /usr/lib/gcc/avr/5.4.0/../../../avr/lib/avr5/crtatmega32u4.o
__vector_26                                       /usr/lib/gcc/avr/5.4.0/../../../avr/lib/avr5/crtatmega32u4.o
__vector_27                                       /usr/lib/gcc/avr/5.4.0/../../../avr/lib/avr5/crtatmega32u4.o
__vector_28                                       /usr/lib/gcc/avr/5.4.0/../../../avr/lib/avr5/crtatmega32u4.o
__vector_29                                       /usr/lib/gcc/avr/5.4.0/../../../avr/lib/avr5/crtatmega32u4.o
__vector_3                                        /usr/lib/gcc/avr/5.4.0/../../../avr/lib/avr5/crtatmega32u4.o
__vector_30                                       /usr/lib/gcc/avr/5.4.0/../../../avr/lib/avr5/crtatmega32u4.o
__vector_31                                       /usr/lib/gcc/avr/5.4.0/../../../avr/lib/avr5/crtatmega32u4.o
__vector_32                                       /usr/lib/gcc/avr/5.4.0/../../../avr/lib/avr5/crtatmega32u4.o
__vector_33                                       /usr/lib/gcc/avr/5.4.0/../../../avr/lib/avr5/crtatmega32u4.o
__vector_34                                       /usr/lib/gcc/avr/5.4.0/../../../avr/lib/avr5/crtatmega32u4.o
__vector_35                                       /usr/lib/gcc/avr/5.4.0/../../../avr/lib/avr5/crtatmega32u4.o
__vector_36                                       /usr/lib/gcc/avr/5.4.0/../../../avr/lib/avr5/crtatmega32u4.o
__vector_37                                       /usr/lib/gcc/avr/5.4.0/../../../avr/lib/avr5/crtatmega32u4.o
__vector_38                                       /usr/lib/gcc/avr/5.4.0/../../../avr/lib/avr5/crtatmega32u4.o
__vector_39                                       /usr/lib/gcc/avr/5.4.0/../../../avr/lib/avr5/crtatmega32u4.o
__vector_4                                        /usr/lib/gcc/avr/5.4.0/../../../avr/lib/avr5/crtatmega32u4.o
__vector_40                                       /usr/lib/gcc/avr/5.4.0/../../../avr/lib/avr5/crtatmega32u4.o
__vector_41                                       /usr/lib/gcc/avr/5.4.0/../../../avr/lib/avr5/crtatmega32u4.o
__vector_42                                       /usr/lib/gcc/avr/5.4.0/../../../avr/lib/avr5/crtatmega32u4.o
__vector_5                                        /usr/lib/gcc/avr/5.4.0/../../../avr/lib/avr5/crtatmega32u4.o
__vector_6                                        /usr/lib/gcc/avr/5.4.0/../../../avr/lib/avr5/crtatmega32u4.o
__vector_7                                        /usr/lib/gcc/avr/5.4.0/../../../avr/lib/avr5/crtatmega32u4.o
__vector_8                                        /usr/lib/gcc/avr/5.4.0/../../../avr/lib/avr5/crtatmega32u4.o
__vector_9                                        /usr/lib/gcc/avr/5.4.0/../../../avr/lib/avr5/crtatmega32u4.o
__vector_default                                  /usr/lib/gcc/avr/5.4.0/../../../avr/lib/avr5/crtatmega32u4.o
__vectors                                         /usr/lib/gcc/avr/5.4.0/../../../avr/lib/avr5/crtatmega32u4.o
__xprintf                                         .build/obj_kinesis_nguyenvietyen_kinesismod/platforms/avr/xprintf.o
_div                                              /usr/lib/gcc/avr/5.4.0/avr5/libgcc.a(_divmodhi4.o)
_exit                                             /usr/lib/gcc/avr/5.4.0/avr5/libgcc.a(_exit.o)
action_exec                                       .build/obj_kinesis_nguyenvietyen_kinesismod/quantum/action.o
                                                  .build/obj_kinesis_nguyenvietyen_kinesismod/quantum/keyboard.o
action_for_key                                    .build/obj_kinesis_nguyenvietyen_kinesismod/quantum/keymap_common.o
                                                  .build/obj_kinesis_nguyenvietyen_kinesismod/quantum/action_layer.o
action_for_keycode                                .build/obj_kinesis_nguyenvietyen_kinesismod/quantum/keymap_common.o
action_tapping_process                            .build/obj_kinesis_nguyenvietyen_kinesismod/quantum/action_tapping.o
                                                  .build/obj_kinesis_nguyenvietyen_kinesismod/quantum/action.o
add_key                                           .build/obj_kinesis_nguyenvietyen_kinesismod/quantum/action_util.o
add_key_bit                                       .build/obj_kinesis_nguyenvietyen_kinesismod/protocol/report.o
add_key_byte                                      .build/obj_kinesis_nguyenvietyen_kinesismod/protocol/report.o
add_key_to_report                                 .build/obj_kinesis_nguyenvietyen_kinesismod/protocol/report.o
                                                  .build/obj_kinesis_nguyenvietyen_kinesismod/quantum/process_keycode/process_grave_esc.o
                                                  .build/obj_kinesis_nguyenvietyen_kinesismod/quantum/action_util.o
                                                  .build/obj_kinesis_nguyenvietyen_kinesismod/quantum/action.o
add_mods                                          .build/obj_kinesis_nguyenvietyen_kinesismod/quantum/action_util.o
                                                  .build/obj_kinesis_nguyenvietyen_kinesismod/quantum/action.o
add_oneshot_locked_mods                           .build/obj_kinesis_nguyenvietyen_kinesismod/quantum/action_util.o
add_oneshot_mods                                  .build/obj_kinesis_nguyenvietyen_kinesismod/quantum/action_util.o
                                                  .build/obj_kinesis_nguyenvietyen_kinesismod/quantum/action.o
add_weak_mods                                     .build/obj_kinesis_nguyenvietyen_kinesismod/quantum/action_util.o
                                                  .build/obj_kinesis_nguyenvietyen_kinesismod/quantum/process_keycode/process_caps_word.o
                                                  .build/obj_kinesis_nguyenvietyen_kinesismod/quantum/action.o
                                                  .build/obj_kinesis_nguyenvietyen_kinesismod/quantum/keymap_introspection.o
ascii_to_altgr_lut                                .build/obj_kinesis_nguyenvietyen_kinesismod/quantum/send_string/send_string.o
ascii_to_dead_lut                                 .build/obj_kinesis_nguyenvietyen_kinesismod/quantum/send_string/send_string.o
ascii_to_keycode_lut                              .build/obj_kinesis_nguyenvietyen_kinesismod/quantum/send_string/send_string.o
ascii_to_shift_lut                                .build/obj_kinesis_nguyenvietyen_kinesismod/quantum/send_string/send_string.o
biton                                             .build/obj_kinesis_nguyenvietyen_kinesismod/quantum/bitwise.o
                                                  .build/obj_kinesis_nguyenvietyen_kinesismod/protocol/report.o
biton16                                           .build/obj_kinesis_nguyenvietyen_kinesismod/quantum/bitwise.o
biton32                                           .build/obj_kinesis_nguyenvietyen_kinesismod/quantum/bitwise.o
bitpop                                            .build/obj_kinesis_nguyenvietyen_kinesismod/quantum/bitwise.o
                                                  .build/obj_kinesis_nguyenvietyen_kinesismod/quantum/action_util.o
bitpop16                                          .build/obj_kinesis_nguyenvietyen_kinesismod/quantum/bitwise.o
bitpop32                                          .build/obj_kinesis_nguyenvietyen_kinesismod/quantum/bitwise.o
bitrev                                            .build/obj_kinesis_nguyenvietyen_kinesismod/quantum/bitwise.o
bitrev16                                          .build/obj_kinesis_nguyenvietyen_kinesismod/quantum/bitwise.o
bitrev32                                          .build/obj_kinesis_nguyenvietyen_kinesismod/quantum/bitwise.o
bootloader_jump                                   .build/obj_kinesis_nguyenvietyen_kinesismod/platforms/avr/bootloaders/caterina.o
                                                  .build/obj_kinesis_nguyenvietyen_kinesismod/quantum/quantum.o
caps_word_off                                     .build/obj_kinesis_nguyenvietyen_kinesismod/quantum/caps_word.o
                                                  .build/obj_kinesis_nguyenvietyen_kinesismod/quantum/process_keycode/process_caps_word.o
caps_word_on                                      .build/obj_kinesis_nguyenvietyen_kinesismod/quantum/caps_word.o
caps_word_press_user                              .build/obj_kinesis_nguyenvietyen_kinesismod/quantum/keymap_introspection.o
caps_word_reset_idle_timer                        .build/obj_kinesis_nguyenvietyen_kinesismod/quantum/caps_word.o
                                                  .build/obj_kinesis_nguyenvietyen_kinesismod/quantum/process_keycode/process_caps_word.o
caps_word_set_user                                .build/obj_kinesis_nguyenvietyen_kinesismod/quantum/caps_word.o
caps_word_task                                    .build/obj_kinesis_nguyenvietyen_kinesismod/quantum/caps_word.o
                                                  .build/obj_kinesis_nguyenvietyen_kinesismod/quantum/keyboard.o
caps_word_toggle                                  .build/obj_kinesis_nguyenvietyen_kinesismod/quantum/caps_word.o
                                                  .build/obj_kinesis_nguyenvietyen_kinesismod/quantum/process_keycode/process_caps_word.o
clear_keyboard                                    .build/obj_kinesis_nguyenvietyen_kinesismod/quantum/action.o
                                                  .build/obj_kinesis_nguyenvietyen_kinesismod/lufa.o
                                                  .build/obj_kinesis_nguyenvietyen_kinesismod/platforms/avr/suspend.o
                                                  .build/obj_kinesis_nguyenvietyen_kinesismod/quantum/process_keycode/process_magic.o
                                                  .build/obj_kinesis_nguyenvietyen_kinesismod/quantum/action_tapping.o
                                                  .build/obj_kinesis_nguyenvietyen_kinesismod/quantum/quantum.o
clear_keyboard_but_mods                           .build/obj_kinesis_nguyenvietyen_kinesismod/quantum/action.o
clear_keyboard_but_mods_and_keys                  .build/obj_kinesis_nguyenvietyen_kinesismod/quantum/action.o
clear_keys                                        .build/obj_kinesis_nguyenvietyen_kinesismod/quantum/action_util.o
clear_keys_from_report                            .build/obj_kinesis_nguyenvietyen_kinesismod/protocol/report.o
                                                  .build/obj_kinesis_nguyenvietyen_kinesismod/quantum/action_util.o
                                                  .build/obj_kinesis_nguyenvietyen_kinesismod/quantum/action.o
clear_mods                                        .build/obj_kinesis_nguyenvietyen_kinesismod/quantum/action_util.o
                                                  .build/obj_kinesis_nguyenvietyen_kinesismod/quantum/caps_word.o
                                                  .build/obj_kinesis_nguyenvietyen_kinesismod/quantum/action.o
clear_oneshot_layer_state                         .build/obj_kinesis_nguyenvietyen_kinesismod/quantum/action_util.o
                                                  .build/obj_kinesis_nguyenvietyen_kinesismod/quantum/action.o
clear_oneshot_locked_mods                         .build/obj_kinesis_nguyenvietyen_kinesismod/quantum/action_util.o
clear_oneshot_mods                                .build/obj_kinesis_nguyenvietyen_kinesismod/quantum/action_util.o
                                                  .build/obj_kinesis_nguyenvietyen_kinesismod/quantum/caps_word.o
clear_weak_mods                                   .build/obj_kinesis_nguyenvietyen_kinesismod/quantum/action_util.o
                                                  .build/obj_kinesis_nguyenvietyen_kinesismod/quantum/process_keycode/process_caps_word.o
                                                  .build/obj_kinesis_nguyenvietyen_kinesismod/quantum/action.o
debounce                                          .build/obj_kinesis_nguyenvietyen_kinesismod/quantum/debounce/sym_defer_g.o
                                                  .build/obj_kinesis_nguyenvietyen_kinesismod/quantum/matrix_common.o
debounce_free                                     .build/obj_kinesis_nguyenvietyen_kinesismod/quantum/debounce/sym_defer_g.o
debounce_init                                     .build/obj_kinesis_nguyenvietyen_kinesismod/quantum/debounce/sym_defer_g.o
                                                  .build/obj_kinesis_nguyenvietyen_kinesismod/quantum/matrix_common.o
debug_action                                      .build/obj_kinesis_nguyenvietyen_kinesismod/quantum/action.o
debug_config                                      .build/obj_kinesis_nguyenvietyen_kinesismod/quantum/logging/debug.o
                                                  .build/obj_kinesis_nguyenvietyen_kinesismod/quantum/keyboard.o
debug_event                                       .build/obj_kinesis_nguyenvietyen_kinesismod/quantum/action.o
                                                  .build/obj_kinesis_nguyenvietyen_kinesismod/quantum/action_tapping.o
debug_record                                      .build/obj_kinesis_nguyenvietyen_kinesismod/quantum/action.o
                                                  .build/obj_kinesis_nguyenvietyen_kinesismod/quantum/action_tapping.o
default_layer_and                                 .build/obj_kinesis_nguyenvietyen_kinesismod/quantum/action_layer.o
                                                  .build/obj_kinesis_nguyenvietyen_kinesismod/quantum/action.o
default_layer_debug                               .build/obj_kinesis_nguyenvietyen_kinesismod/quantum/action_layer.o
                                                  .build/obj_kinesis_nguyenvietyen_kinesismod/quantum/action.o
default_layer_or                                  .build/obj_kinesis_nguyenvietyen_kinesismod/quantum/action_layer.o
                                                  .build/obj_kinesis_nguyenvietyen_kinesismod/quantum/action.o
default_layer_set                                 .build/obj_kinesis_nguyenvietyen_kinesismod/quantum/action_layer.o
                                                  .build/obj_kinesis_nguyenvietyen_kinesismod/quantum/keyboard.o
                                                  .build/obj_kinesis_nguyenvietyen_kinesismod/quantum/action.o
                                                  .build/obj_kinesis_nguyenvietyen_kinesismod/quantum/quantum.o
default_layer_state                               .build/obj_kinesis_nguyenvietyen_kinesismod/quantum/action_layer.o
                                                  .build/obj_kinesis_nguyenvietyen_kinesismod/quantum/eeconfig.o
default_layer_state_set_kb                        .build/obj_kinesis_nguyenvietyen_kinesismod/quantum/action_layer.o
default_layer_state_set_user                      .build/obj_kinesis_nguyenvietyen_kinesismod/quantum/action_layer.o
default_layer_xor                                 .build/obj_kinesis_nguyenvietyen_kinesismod/quantum/action_layer.o
                                                  .build/obj_kinesis_nguyenvietyen_kinesismod/quantum/action.o
del_key                                           .build/obj_kinesis_nguyenvietyen_kinesismod/quantum/action_util.o
del_key_bit                                       .build/obj_kinesis_nguyenvietyen_kinesismod/protocol/report.o
del_key_byte                                      .build/obj_kinesis_nguyenvietyen_kinesismod/protocol/report.o
del_key_from_report                               .build/obj_kinesis_nguyenvietyen_kinesismod/protocol/report.o
                                                  .build/obj_kinesis_nguyenvietyen_kinesismod/quantum/process_keycode/process_grave_esc.o
                                                  .build/obj_kinesis_nguyenvietyen_kinesismod/quantum/action_util.o
                                                  .build/obj_kinesis_nguyenvietyen_kinesismod/quantum/action.o
del_mods                                          .build/obj_kinesis_nguyenvietyen_kinesismod/quantum/action_util.o
                                                  .build/obj_kinesis_nguyenvietyen_kinesismod/quantum/action.o
del_oneshot_locked_mods                           .build/obj_kinesis_nguyenvietyen_kinesismod/quantum/action_util.o
                                                  .build/obj_kinesis_nguyenvietyen_kinesismod/quantum/action.o
del_oneshot_mods                                  .build/obj_kinesis_nguyenvietyen_kinesismod/quantum/action_util.o
                                                  .build/obj_kinesis_nguyenvietyen_kinesismod/quantum/action.o
del_weak_mods                                     .build/obj_kinesis_nguyenvietyen_kinesismod/quantum/action_util.o
                                                  .build/obj_kinesis_nguyenvietyen_kinesismod/quantum/action.o
disable_action_cache                              .build/obj_kinesis_nguyenvietyen_kinesismod/quantum/action.o
                                                  .build/obj_kinesis_nguyenvietyen_kinesismod/quantum/action_layer.o
                                                  .build/obj_kinesis_nguyenvietyen_kinesismod/quantum/quantum.o
do_code16                                         .build/obj_kinesis_nguyenvietyen_kinesismod/quantum/quantum.o
eeconfig_disable                                  .build/obj_kinesis_nguyenvietyen_kinesismod/quantum/eeconfig.o
                                                  .build/obj_kinesis_nguyenvietyen_kinesismod/quantum/quantum.o
eeconfig_enable                                   .build/obj_kinesis_nguyenvietyen_kinesismod/quantum/eeconfig.o
eeconfig_init                                     .build/obj_kinesis_nguyenvietyen_kinesismod/quantum/eeconfig.o
                                                  .build/obj_kinesis_nguyenvietyen_kinesismod/quantum/keyboard.o
eeconfig_init_kb                                  .build/obj_kinesis_nguyenvietyen_kinesismod/quantum/eeconfig.o
eeconfig_init_quantum                             .build/obj_kinesis_nguyenvietyen_kinesismod/quantum/eeconfig.o
eeconfig_init_user                                .build/obj_kinesis_nguyenvietyen_kinesismod/quantum/eeconfig.o
eeconfig_is_disabled                              .build/obj_kinesis_nguyenvietyen_kinesismod/quantum/eeconfig.o
eeconfig_is_enabled                               .build/obj_kinesis_nguyenvietyen_kinesismod/quantum/eeconfig.o
                                                  .build/obj_kinesis_nguyenvietyen_kinesismod/quantum/keyboard.o
eeconfig_read_audio                               .build/obj_kinesis_nguyenvietyen_kinesismod/quantum/eeconfig.o
eeconfig_read_debug                               .build/obj_kinesis_nguyenvietyen_kinesismod/quantum/eeconfig.o
                                                  .build/obj_kinesis_nguyenvietyen_kinesismod/quantum/keyboard.o
eeconfig_read_default_layer                       .build/obj_kinesis_nguyenvietyen_kinesismod/quantum/eeconfig.o
                                                  .build/obj_kinesis_nguyenvietyen_kinesismod/quantum/keyboard.o
eeconfig_read_handedness                          .build/obj_kinesis_nguyenvietyen_kinesismod/quantum/eeconfig.o
eeconfig_read_haptic                              .build/obj_kinesis_nguyenvietyen_kinesismod/quantum/eeconfig.o
eeconfig_read_kb                                  .build/obj_kinesis_nguyenvietyen_kinesismod/quantum/eeconfig.o
eeconfig_read_keymap                              .build/obj_kinesis_nguyenvietyen_kinesismod/quantum/eeconfig.o
                                                  .build/obj_kinesis_nguyenvietyen_kinesismod/quantum/process_keycode/process_magic.o
                                                  .build/obj_kinesis_nguyenvietyen_kinesismod/quantum/keyboard.o
eeconfig_read_user                                .build/obj_kinesis_nguyenvietyen_kinesismod/quantum/eeconfig.o
eeconfig_update_audio                             .build/obj_kinesis_nguyenvietyen_kinesismod/quantum/eeconfig.o
eeconfig_update_debug                             .build/obj_kinesis_nguyenvietyen_kinesismod/quantum/eeconfig.o
eeconfig_update_default_layer                     .build/obj_kinesis_nguyenvietyen_kinesismod/quantum/eeconfig.o
                                                  .build/obj_kinesis_nguyenvietyen_kinesismod/quantum/quantum.o
eeconfig_update_handedness                        .build/obj_kinesis_nguyenvietyen_kinesismod/quantum/eeconfig.o
                                                  .build/obj_kinesis_nguyenvietyen_kinesismod/quantum/process_keycode/process_magic.o
eeconfig_update_haptic                            .build/obj_kinesis_nguyenvietyen_kinesismod/quantum/eeconfig.o
eeconfig_update_kb                                .build/obj_kinesis_nguyenvietyen_kinesismod/quantum/eeconfig.o
eeconfig_update_keymap                            .build/obj_kinesis_nguyenvietyen_kinesismod/quantum/eeconfig.o
                                                  .build/obj_kinesis_nguyenvietyen_kinesismod/quantum/process_keycode/process_magic.o
                                                  .build/obj_kinesis_nguyenvietyen_kinesismod/quantum/action_util.o
eeconfig_update_user                              .build/obj_kinesis_nguyenvietyen_kinesismod/quantum/eeconfig.o
eeprom_read_block                                 /usr/lib/gcc/avr/5.4.0/../../../avr/lib/avr5/libatmega32u4.a(eerd_block.o)
eeprom_read_blraw                                 /usr/lib/gcc/avr/5.4.0/../../../avr/lib/avr5/libatmega32u4.a(eerd_block.o)
                                                  /usr/lib/gcc/avr/5.4.0/../../../avr/lib/avr5/libatmega32u4.a(eerd_word.o)
                                                  /usr/lib/gcc/avr/5.4.0/../../../avr/lib/avr5/libatmega32u4.a(eerd_dword.o)
eeprom_read_byte                                  /usr/lib/gcc/avr/5.4.0/../../../avr/lib/avr5/libatmega32u4.a(eerd_byte.o)
                                                  .build/obj_kinesis_nguyenvietyen_kinesismod/lib/lufa/LUFA/Drivers/USB/Core/AVR8/EndpointStream_AVR8.o
                                                  .build/obj_kinesis_nguyenvietyen_kinesismod/quantum/eeconfig.o
eeprom_read_dword                                 /usr/lib/gcc/avr/5.4.0/../../../avr/lib/avr5/libatmega32u4.a(eerd_dword.o)
                                                  .build/obj_kinesis_nguyenvietyen_kinesismod/quantum/eeconfig.o
eeprom_read_float                                 /usr/lib/gcc/avr/5.4.0/../../../avr/lib/avr5/libatmega32u4.a(eerd_dword.o)
eeprom_read_word                                  /usr/lib/gcc/avr/5.4.0/../../../avr/lib/avr5/libatmega32u4.a(eerd_word.o)
                                                  .build/obj_kinesis_nguyenvietyen_kinesismod/quantum/eeconfig.o
eeprom_update_block                               /usr/lib/gcc/avr/5.4.0/../../../avr/lib/avr5/libatmega32u4.a(eeupd_block.o)
                                                  .build/obj_kinesis_nguyenvietyen_kinesismod/quantum/eeconfig.o
eeprom_update_byte                                /usr/lib/gcc/avr/5.4.0/../../../avr/lib/avr5/libatmega32u4.a(eeupd_byte.o)
                                                  /usr/lib/gcc/avr/5.4.0/../../../avr/lib/avr5/libatmega32u4.a(eeupd_word.o)
                                                  /usr/lib/gcc/avr/5.4.0/../../../avr/lib/avr5/libatmega32u4.a(eeupd_dword.o)
                                                  .build/obj_kinesis_nguyenvietyen_kinesismod/lib/lufa/LUFA/Drivers/USB/Core/AVR8/EndpointStream_AVR8.o
                                                  .build/obj_kinesis_nguyenvietyen_kinesismod/quantum/eeconfig.o
eeprom_update_dword                               /usr/lib/gcc/avr/5.4.0/../../../avr/lib/avr5/libatmega32u4.a(eeupd_dword.o)
                                                  .build/obj_kinesis_nguyenvietyen_kinesismod/quantum/eeconfig.o
eeprom_update_float                               /usr/lib/gcc/avr/5.4.0/../../../avr/lib/avr5/libatmega32u4.a(eeupd_dword.o)
eeprom_update_r18                                 /usr/lib/gcc/avr/5.4.0/../../../avr/lib/avr5/libatmega32u4.a(eeupd_byte.o)
                                                  /usr/lib/gcc/avr/5.4.0/../../../avr/lib/avr5/libatmega32u4.a(eeupd_word.o)
                                                  /usr/lib/gcc/avr/5.4.0/../../../avr/lib/avr5/libatmega32u4.a(eeupd_dword.o)
                                                  /usr/lib/gcc/avr/5.4.0/../../../avr/lib/avr5/libatmega32u4.a(eeupd_block.o)
eeprom_update_word                                /usr/lib/gcc/avr/5.4.0/../../../avr/lib/avr5/libatmega32u4.a(eeupd_word.o)
                                                  .build/obj_kinesis_nguyenvietyen_kinesismod/quantum/eeconfig.o
exit                                              /usr/lib/gcc/avr/5.4.0/avr5/libgcc.a(_exit.o)
                                                  /usr/lib/gcc/avr/5.4.0/../../../avr/lib/avr5/crtatmega32u4.o
extract_mod_bits                                  .build/obj_kinesis_nguyenvietyen_kinesismod/quantum/quantum.o
get_event_keycode                                 .build/obj_kinesis_nguyenvietyen_kinesismod/quantum/quantum.o
get_first_key                                     .build/obj_kinesis_nguyenvietyen_kinesismod/protocol/report.o
get_hardware_id                                   .build/obj_kinesis_nguyenvietyen_kinesismod/platforms/avr/hardware_id.o
get_mods                                          .build/obj_kinesis_nguyenvietyen_kinesismod/quantum/action_util.o
                                                  .build/obj_kinesis_nguyenvietyen_kinesismod/quantum/process_keycode/process_grave_esc.o
                                                  .build/obj_kinesis_nguyenvietyen_kinesismod/quantum/process_keycode/process_caps_word.o
get_numeric_str                                   .build/obj_kinesis_nguyenvietyen_kinesismod/quantum/quantum.o
get_oneshot_layer                                 .build/obj_kinesis_nguyenvietyen_kinesismod/quantum/action_util.o
                                                  .build/obj_kinesis_nguyenvietyen_kinesismod/quantum/action.o
get_oneshot_layer_state                           .build/obj_kinesis_nguyenvietyen_kinesismod/quantum/action_util.o
                                                  .build/obj_kinesis_nguyenvietyen_kinesismod/quantum/action.o
get_oneshot_locked_mods                           .build/obj_kinesis_nguyenvietyen_kinesismod/quantum/action_util.o
get_oneshot_mods                                  .build/obj_kinesis_nguyenvietyen_kinesismod/quantum/action_util.o
                                                  .build/obj_kinesis_nguyenvietyen_kinesismod/quantum/process_keycode/process_caps_word.o
get_record_keycode                                .build/obj_kinesis_nguyenvietyen_kinesismod/quantum/quantum.o
get_u16_str                                       .build/obj_kinesis_nguyenvietyen_kinesismod/quantum/quantum.o
get_u8_str                                        .build/obj_kinesis_nguyenvietyen_kinesismod/quantum/quantum.o
get_usb_descriptor                                .build/obj_kinesis_nguyenvietyen_kinesismod/usb_descriptor.o
                                                  .build/obj_kinesis_nguyenvietyen_kinesismod/lufa.o
get_weak_mods                                     .build/obj_kinesis_nguyenvietyen_kinesismod/quantum/action_util.o
has_anykey                                        .build/obj_kinesis_nguyenvietyen_kinesismod/protocol/report.o
                                                  .build/obj_kinesis_nguyenvietyen_kinesismod/quantum/action_util.o
has_anymod                                        .build/obj_kinesis_nguyenvietyen_kinesismod/quantum/action_util.o
has_mouse_report_changed                          .build/obj_kinesis_nguyenvietyen_kinesismod/protocol/report.o
                                                  .build/obj_kinesis_nguyenvietyen_kinesismod/quantum/mousekey.o
has_oneshot_mods_timed_out                        .build/obj_kinesis_nguyenvietyen_kinesismod/quantum/action_util.o
host_consumer_send                                .build/obj_kinesis_nguyenvietyen_kinesismod/protocol/host.o
                                                  .build/obj_kinesis_nguyenvietyen_kinesismod/quantum/action.o
host_get_driver                                   .build/obj_kinesis_nguyenvietyen_kinesismod/protocol/host.o
host_keyboard_led_state                           .build/obj_kinesis_nguyenvietyen_kinesismod/protocol/host.o
                                                  .build/obj_kinesis_nguyenvietyen_kinesismod/quantum/action.o
host_keyboard_leds                                .build/obj_kinesis_nguyenvietyen_kinesismod/protocol/host.o
                                                  .build/obj_kinesis_nguyenvietyen_kinesismod/lufa.o
                                                  .build/obj_kinesis_nguyenvietyen_kinesismod/quantum/action.o
                                                  .build/obj_kinesis_nguyenvietyen_kinesismod/quantum/led.o
host_keyboard_send                                .build/obj_kinesis_nguyenvietyen_kinesismod/protocol/host.o
                                                  .build/obj_kinesis_nguyenvietyen_kinesismod/quantum/action_util.o
host_last_consumer_usage                          .build/obj_kinesis_nguyenvietyen_kinesismod/protocol/host.o
host_last_system_usage                            .build/obj_kinesis_nguyenvietyen_kinesismod/protocol/host.o
host_mouse_send                                   .build/obj_kinesis_nguyenvietyen_kinesismod/protocol/host.o
                                                  .build/obj_kinesis_nguyenvietyen_kinesismod/quantum/mousekey.o
host_nkro_send                                    .build/obj_kinesis_nguyenvietyen_kinesismod/protocol/host.o
                                                  .build/obj_kinesis_nguyenvietyen_kinesismod/quantum/action_util.o
host_set_driver                                   .build/obj_kinesis_nguyenvietyen_kinesismod/protocol/host.o
                                                  .build/obj_kinesis_nguyenvietyen_kinesismod/lufa.o
host_system_send                                  .build/obj_kinesis_nguyenvietyen_kinesismod/protocol/host.o
                                                  .build/obj_kinesis_nguyenvietyen_kinesismod/quantum/action.o
housekeeping_task                                 .build/obj_kinesis_nguyenvietyen_kinesismod/quantum/keyboard.o
                                                  .build/obj_kinesis_nguyenvietyen_kinesismod/quantum/main.o
housekeeping_task_kb                              .build/obj_kinesis_nguyenvietyen_kinesismod/quantum/keyboard.o
housekeeping_task_user                            .build/obj_kinesis_nguyenvietyen_kinesismod/quantum/keyboard.o
is_caps_word_on                                   .build/obj_kinesis_nguyenvietyen_kinesismod/quantum/caps_word.o
                                                  .build/obj_kinesis_nguyenvietyen_kinesismod/quantum/process_keycode/process_caps_word.o
is_key_pressed                                    .build/obj_kinesis_nguyenvietyen_kinesismod/protocol/report.o
                                                  .build/obj_kinesis_nguyenvietyen_kinesismod/quantum/action.o
is_keyboard_left                                  .build/obj_kinesis_nguyenvietyen_kinesismod/quantum/keyboard.o
is_keyboard_master                                .build/obj_kinesis_nguyenvietyen_kinesismod/quantum/keyboard.o
is_oneshot_enabled                                .build/obj_kinesis_nguyenvietyen_kinesismod/quantum/action_util.o
is_oneshot_layer_active                           .build/obj_kinesis_nguyenvietyen_kinesismod/quantum/action_util.o
                                                  .build/obj_kinesis_nguyenvietyen_kinesismod/quantum/action.o
is_tap_action                                     .build/obj_kinesis_nguyenvietyen_kinesismod/quantum/action.o
is_tap_record                                     .build/obj_kinesis_nguyenvietyen_kinesismod/quantum/action.o
                                                  .build/obj_kinesis_nguyenvietyen_kinesismod/quantum/action_tapping.o
keyboard_idle                                     .build/obj_kinesis_nguyenvietyen_kinesismod/lufa.o
keyboard_init                                     .build/obj_kinesis_nguyenvietyen_kinesismod/quantum/keyboard.o
                                                  .build/obj_kinesis_nguyenvietyen_kinesismod/quantum/main.o
keyboard_post_init_kb                             .build/obj_kinesis_nguyenvietyen_kinesismod/quantum/keyboard.o
keyboard_post_init_user                           .build/obj_kinesis_nguyenvietyen_kinesismod/quantum/keyboard.o
keyboard_pre_init_kb                              .build/obj_kinesis_nguyenvietyen_kinesismod/quantum/keyboard.o
keyboard_pre_init_user                            .build/obj_kinesis_nguyenvietyen_kinesismod/quantum/keyboard.o
keyboard_protocol                                 .build/obj_kinesis_nguyenvietyen_kinesismod/lufa.o
                                                  .build/obj_kinesis_nguyenvietyen_kinesismod/protocol/report.o
                                                  .build/obj_kinesis_nguyenvietyen_kinesismod/quantum/action_util.o
keyboard_report                                   .build/obj_kinesis_nguyenvietyen_kinesismod/quantum/action_util.o
                                                  .build/obj_kinesis_nguyenvietyen_kinesismod/protocol/report.o
keyboard_setup                                    .build/obj_kinesis_nguyenvietyen_kinesismod/quantum/keyboard.o
                                                  .build/obj_kinesis_nguyenvietyen_kinesismod/quantum/main.o
keyboard_task                                     .build/obj_kinesis_nguyenvietyen_kinesismod/quantum/keyboard.o
                                                  .build/obj_kinesis_nguyenvietyen_kinesismod/quantum/main.o
keycode_at_keymap_location                        .build/obj_kinesis_nguyenvietyen_kinesismod/quantum/keymap_introspection.o
                                                  .build/obj_kinesis_nguyenvietyen_kinesismod/quantum/keymap_common.o
keycode_at_keymap_location_raw                    .build/obj_kinesis_nguyenvietyen_kinesismod/quantum/keymap_introspection.o
keycode_config                                    .build/obj_kinesis_nguyenvietyen_kinesismod/quantum/keycode_config.o
                                                  .build/obj_kinesis_nguyenvietyen_kinesismod/quantum/keymap_common.o
keymap_config                                     .build/obj_kinesis_nguyenvietyen_kinesismod/quantum/keycode_config.o
                                                  .build/obj_kinesis_nguyenvietyen_kinesismod/protocol/report.o
                                                  .build/obj_kinesis_nguyenvietyen_kinesismod/quantum/process_keycode/process_magic.o
                                                  .build/obj_kinesis_nguyenvietyen_kinesismod/quantum/keyboard.o
                                                  .build/obj_kinesis_nguyenvietyen_kinesismod/quantum/action_util.o
                                                  .build/obj_kinesis_nguyenvietyen_kinesismod/quantum/action.o
keymap_key_to_keycode                             .build/obj_kinesis_nguyenvietyen_kinesismod/quantum/keymap_common.o
                                                  .build/obj_kinesis_nguyenvietyen_kinesismod/quantum/quantum.o
keymap_layer_count                                .build/obj_kinesis_nguyenvietyen_kinesismod/quantum/keymap_introspection.o
keymap_layer_count_raw                            .build/obj_kinesis_nguyenvietyen_kinesismod/quantum/keymap_introspection.o
keymaps                                           .build/obj_kinesis_nguyenvietyen_kinesismod/quantum/keymap_introspection.o
last_encoder_activity_elapsed                     .build/obj_kinesis_nguyenvietyen_kinesismod/quantum/keyboard.o
last_encoder_activity_time                        .build/obj_kinesis_nguyenvietyen_kinesismod/quantum/keyboard.o
last_encoder_activity_trigger                     .build/obj_kinesis_nguyenvietyen_kinesismod/quantum/keyboard.o
last_input_activity_elapsed                       .build/obj_kinesis_nguyenvietyen_kinesismod/quantum/keyboard.o
last_input_activity_time                          .build/obj_kinesis_nguyenvietyen_kinesismod/quantum/keyboard.o
last_led_activity_elapsed                         .build/obj_kinesis_nguyenvietyen_kinesismod/quantum/led.o
last_led_activity_time                            .build/obj_kinesis_nguyenvietyen_kinesismod/quantum/led.o
last_matrix_activity_elapsed                      .build/obj_kinesis_nguyenvietyen_kinesismod/quantum/keyboard.o
last_matrix_activity_time                         .build/obj_kinesis_nguyenvietyen_kinesismod/quantum/keyboard.o
last_matrix_activity_trigger                      .build/obj_kinesis_nguyenvietyen_kinesismod/quantum/keyboard.o
last_pointing_device_activity_elapsed             .build/obj_kinesis_nguyenvietyen_kinesismod/quantum/keyboard.o
last_pointing_device_activity_time                .build/obj_kinesis_nguyenvietyen_kinesismod/quantum/keyboard.o
last_pointing_device_activity_trigger             .build/obj_kinesis_nguyenvietyen_kinesismod/quantum/keyboard.o
layer_and                                         .build/obj_kinesis_nguyenvietyen_kinesismod/quantum/action_layer.o
                                                  .build/obj_kinesis_nguyenvietyen_kinesismod/quantum/action.o
layer_clear                                       .build/obj_kinesis_nguyenvietyen_kinesismod/quantum/action_layer.o
                                                  .build/obj_kinesis_nguyenvietyen_kinesismod/quantum/action.o
layer_debug                                       .build/obj_kinesis_nguyenvietyen_kinesismod/quantum/action_layer.o
                                                  .build/obj_kinesis_nguyenvietyen_kinesismod/quantum/action.o
layer_invert                                      .build/obj_kinesis_nguyenvietyen_kinesismod/quantum/action_layer.o
                                                  .build/obj_kinesis_nguyenvietyen_kinesismod/quantum/action.o
layer_move                                        .build/obj_kinesis_nguyenvietyen_kinesismod/quantum/action_layer.o
                                                  .build/obj_kinesis_nguyenvietyen_kinesismod/quantum/action.o
layer_off                                         .build/obj_kinesis_nguyenvietyen_kinesismod/quantum/action_layer.o
                                                  .build/obj_kinesis_nguyenvietyen_kinesismod/quantum/action_util.o
                                                  .build/obj_kinesis_nguyenvietyen_kinesismod/quantum/action.o
layer_on                                          .build/obj_kinesis_nguyenvietyen_kinesismod/quantum/action_layer.o
                                                  .build/obj_kinesis_nguyenvietyen_kinesismod/quantum/action_util.o
                                                  .build/obj_kinesis_nguyenvietyen_kinesismod/quantum/action.o
layer_or                                          .build/obj_kinesis_nguyenvietyen_kinesismod/quantum/action_layer.o
                                                  .build/obj_kinesis_nguyenvietyen_kinesismod/quantum/action.o
layer_state                                       .build/obj_kinesis_nguyenvietyen_kinesismod/quantum/action_layer.o
                                                  .build/obj_kinesis_nguyenvietyen_kinesismod/quantum/keyboard.o
layer_state_cmp                                   .build/obj_kinesis_nguyenvietyen_kinesismod/quantum/action_layer.o
layer_state_is                                    .build/obj_kinesis_nguyenvietyen_kinesismod/quantum/action_layer.o
layer_state_set                                   .build/obj_kinesis_nguyenvietyen_kinesismod/quantum/action_layer.o
                                                  .build/obj_kinesis_nguyenvietyen_kinesismod/quantum/action.o
layer_state_set_kb                                .build/obj_kinesis_nguyenvietyen_kinesismod/quantum/action_layer.o
                                                  .build/obj_kinesis_nguyenvietyen_kinesismod/quantum/keyboard.o
layer_state_set_user                              .build/obj_kinesis_nguyenvietyen_kinesismod/quantum/action_layer.o
layer_switch_get_action                           .build/obj_kinesis_nguyenvietyen_kinesismod/quantum/action_layer.o
                                                  .build/obj_kinesis_nguyenvietyen_kinesismod/quantum/action_tapping.o
                                                  .build/obj_kinesis_nguyenvietyen_kinesismod/quantum/action.o
layer_switch_get_layer                            .build/obj_kinesis_nguyenvietyen_kinesismod/quantum/action_layer.o
                                                  .build/obj_kinesis_nguyenvietyen_kinesismod/quantum/quantum.o
layer_xor                                         .build/obj_kinesis_nguyenvietyen_kinesismod/quantum/action_layer.o
                                                  .build/obj_kinesis_nguyenvietyen_kinesismod/quantum/action.o
led_init_ports                                    .build/obj_kinesis_nguyenvietyen_kinesismod/quantum/led.o
                                                  .build/obj_kinesis_nguyenvietyen_kinesismod/quantum/keyboard.o
led_set                                           .build/obj_kinesis_nguyenvietyen_kinesismod/quantum/led.o
                                                  .build/obj_kinesis_nguyenvietyen_kinesismod/lufa.o
                                                  .build/obj_kinesis_nguyenvietyen_kinesismod/platforms/avr/sleep_led.o
                                                  .build/obj_kinesis_nguyenvietyen_kinesismod/quantum/action.o
led_suspend                                       .build/obj_kinesis_nguyenvietyen_kinesismod/quantum/led.o
led_task                                          .build/obj_kinesis_nguyenvietyen_kinesismod/quantum/led.o
                                                  .build/obj_kinesis_nguyenvietyen_kinesismod/quantum/keyboard.o
led_update_kb                                     .build/obj_kinesis_nguyenvietyen_kinesismod/quantum/led.o
led_update_ports                                  .build/obj_kinesis_nguyenvietyen_kinesismod/quantum/led.o
led_update_user                                   .build/obj_kinesis_nguyenvietyen_kinesismod/quantum/led.o
led_wakeup                                        .build/obj_kinesis_nguyenvietyen_kinesismod/quantum/led.o
                                                  .build/obj_kinesis_nguyenvietyen_kinesismod/quantum/quantum.o
lufa_driver                                       .build/obj_kinesis_nguyenvietyen_kinesismod/lufa.o
main                                              .build/obj_kinesis_nguyenvietyen_kinesismod/quantum/main.o
                                                  /usr/lib/gcc/avr/5.4.0/../../../avr/lib/avr5/crtatmega32u4.o
matrix                                            .build/obj_kinesis_nguyenvietyen_kinesismod/quantum/matrix_common.o
matrix_can_read                                   .build/obj_kinesis_nguyenvietyen_kinesismod/quantum/keyboard.o
matrix_cols                                       .build/obj_kinesis_nguyenvietyen_kinesismod/quantum/matrix_common.o
matrix_get_row                                    .build/obj_kinesis_nguyenvietyen_kinesismod/quantum/matrix_common.o
                                                  .build/obj_kinesis_nguyenvietyen_kinesismod/platforms/suspend.o
                                                  .build/obj_kinesis_nguyenvietyen_kinesismod/quantum/keyboard.o
matrix_init                                       .build/obj_kinesis_nguyenvietyen_kinesismod/quantum/matrix_common.o
                                                  .build/obj_kinesis_nguyenvietyen_kinesismod/quantum/keyboard.o
matrix_init_custom                                .build/obj_kinesis_nguyenvietyen_kinesismod/matrix.o
matrix_init_kb                                    .build/obj_kinesis_nguyenvietyen_kinesismod/quantum/matrix_common.o
matrix_init_user                                  .build/obj_kinesis_nguyenvietyen_kinesismod/quantum/matrix_common.o
matrix_io_delay                                   .build/obj_kinesis_nguyenvietyen_kinesismod/quantum/matrix_common.o
                                                  .build/obj_kinesis_nguyenvietyen_kinesismod/matrix.o
matrix_is_on                                      .build/obj_kinesis_nguyenvietyen_kinesismod/quantum/matrix_common.o
matrix_output_select_delay                        .build/obj_kinesis_nguyenvietyen_kinesismod/quantum/matrix_common.o
matrix_output_unselect_delay                      .build/obj_kinesis_nguyenvietyen_kinesismod/quantum/matrix_common.o
matrix_power_down                                 .build/obj_kinesis_nguyenvietyen_kinesismod/platforms/suspend.o
matrix_power_up                                   .build/obj_kinesis_nguyenvietyen_kinesismod/platforms/suspend.o
matrix_print                                      .build/obj_kinesis_nguyenvietyen_kinesismod/quantum/matrix_common.o
                                                  .build/obj_kinesis_nguyenvietyen_kinesismod/quantum/keyboard.o
matrix_rows                                       .build/obj_kinesis_nguyenvietyen_kinesismod/quantum/matrix_common.o
matrix_scan                                       .build/obj_kinesis_nguyenvietyen_kinesismod/quantum/matrix_common.o
                                                  .build/obj_kinesis_nguyenvietyen_kinesismod/platforms/suspend.o
                                                  .build/obj_kinesis_nguyenvietyen_kinesismod/quantum/keyboard.o
matrix_scan_custom                                .build/obj_kinesis_nguyenvietyen_kinesismod/matrix.o
matrix_scan_kb                                    .build/obj_kinesis_nguyenvietyen_kinesismod/quantum/matrix_common.o
matrix_scan_user                                  .build/obj_kinesis_nguyenvietyen_kinesismod/quantum/matrix_common.o
matrix_setup                                      .build/obj_kinesis_nguyenvietyen_kinesismod/quantum/keyboard.o
mcu_reset                                         .build/obj_kinesis_nguyenvietyen_kinesismod/platforms/avr/bootloaders/caterina.o
                                                  .build/obj_kinesis_nguyenvietyen_kinesismod/quantum/quantum.o
memcmp                                            /usr/lib/gcc/avr/5.4.0/../../../avr/lib/avr5/libc.a(memcmp.o)
                                                  .build/obj_kinesis_nguyenvietyen_kinesismod/quantum/debounce/sym_defer_g.o
                                                  .build/obj_kinesis_nguyenvietyen_kinesismod/quantum/action_util.o
memcpy                                            /usr/lib/gcc/avr/5.4.0/../../../avr/lib/avr5/libc.a(memcpy.o)
                                                  .build/obj_kinesis_nguyenvietyen_kinesismod/quantum/debounce/sym_defer_g.o
mk_delay                                          .build/obj_kinesis_nguyenvietyen_kinesismod/quantum/mousekey.o
mk_interval                                       .build/obj_kinesis_nguyenvietyen_kinesismod/quantum/mousekey.o
mk_max_speed                                      .build/obj_kinesis_nguyenvietyen_kinesismod/quantum/mousekey.o
mk_time_to_max                                    .build/obj_kinesis_nguyenvietyen_kinesismod/quantum/mousekey.o
mk_wheel_delay                                    .build/obj_kinesis_nguyenvietyen_kinesismod/quantum/mousekey.o
mk_wheel_interval                                 .build/obj_kinesis_nguyenvietyen_kinesismod/quantum/mousekey.o
mk_wheel_max_speed                                .build/obj_kinesis_nguyenvietyen_kinesismod/quantum/mousekey.o
mk_wheel_time_to_max                              .build/obj_kinesis_nguyenvietyen_kinesismod/quantum/mousekey.o
mod_config                                        .build/obj_kinesis_nguyenvietyen_kinesismod/quantum/keycode_config.o
                                                  .build/obj_kinesis_nguyenvietyen_kinesismod/quantum/keymap_common.o
mousekey_clear                                    .build/obj_kinesis_nguyenvietyen_kinesismod/quantum/mousekey.o
                                                  .build/obj_kinesis_nguyenvietyen_kinesismod/quantum/action.o
mousekey_get_report                               .build/obj_kinesis_nguyenvietyen_kinesismod/quantum/mousekey.o
mousekey_off                                      .build/obj_kinesis_nguyenvietyen_kinesismod/quantum/mousekey.o
                                                  .build/obj_kinesis_nguyenvietyen_kinesismod/quantum/action.o
mousekey_on                                       .build/obj_kinesis_nguyenvietyen_kinesismod/quantum/mousekey.o
                                                  .build/obj_kinesis_nguyenvietyen_kinesismod/quantum/action.o
mousekey_send                                     .build/obj_kinesis_nguyenvietyen_kinesismod/quantum/mousekey.o
                                                  .build/obj_kinesis_nguyenvietyen_kinesismod/quantum/action.o
mousekey_task                                     .build/obj_kinesis_nguyenvietyen_kinesismod/quantum/mousekey.o
                                                  .build/obj_kinesis_nguyenvietyen_kinesismod/quantum/keyboard.o
nkro_report                                       .build/obj_kinesis_nguyenvietyen_kinesismod/quantum/action_util.o
                                                  .build/obj_kinesis_nguyenvietyen_kinesismod/protocol/report.o
notify_usb_device_state_change_kb                 .build/obj_kinesis_nguyenvietyen_kinesismod/protocol/usb_device_state.o
notify_usb_device_state_change_user               .build/obj_kinesis_nguyenvietyen_kinesismod/protocol/usb_device_state.o
oneshot_disable                                   .build/obj_kinesis_nguyenvietyen_kinesismod/quantum/action_util.o
                                                  .build/obj_kinesis_nguyenvietyen_kinesismod/quantum/quantum.o
oneshot_enable                                    .build/obj_kinesis_nguyenvietyen_kinesismod/quantum/action_util.o
                                                  .build/obj_kinesis_nguyenvietyen_kinesismod/quantum/quantum.o
oneshot_layer_changed_kb                          .build/obj_kinesis_nguyenvietyen_kinesismod/quantum/action_util.o
oneshot_layer_changed_user                        .build/obj_kinesis_nguyenvietyen_kinesismod/quantum/action_util.o
oneshot_locked_mods_changed_kb                    .build/obj_kinesis_nguyenvietyen_kinesismod/quantum/action_util.o
oneshot_locked_mods_changed_user                  .build/obj_kinesis_nguyenvietyen_kinesismod/quantum/action_util.o
oneshot_mods_changed_kb                           .build/obj_kinesis_nguyenvietyen_kinesismod/quantum/action_util.o
oneshot_mods_changed_user                         .build/obj_kinesis_nguyenvietyen_kinesismod/quantum/action_util.o
oneshot_set                                       .build/obj_kinesis_nguyenvietyen_kinesismod/quantum/action_util.o
oneshot_toggle                                    .build/obj_kinesis_nguyenvietyen_kinesismod/quantum/action_util.o
                                                  .build/obj_kinesis_nguyenvietyen_kinesismod/quantum/quantum.o
peek_matrix                                       .build/obj_kinesis_nguyenvietyen_kinesismod/quantum/matrix_common.o
perform_space_cadet                               .build/obj_kinesis_nguyenvietyen_kinesismod/quantum/process_keycode/process_space_cadet.o
platform_setup                                    .build/obj_kinesis_nguyenvietyen_kinesismod/platforms/avr/platform.o
                                                  .build/obj_kinesis_nguyenvietyen_kinesismod/quantum/main.o
post_process_record_kb                            .build/obj_kinesis_nguyenvietyen_kinesismod/quantum/quantum.o
post_process_record_quantum                       .build/obj_kinesis_nguyenvietyen_kinesismod/quantum/quantum.o
post_process_record_user                          .build/obj_kinesis_nguyenvietyen_kinesismod/quantum/quantum.o
pre_process_record_kb                             .build/obj_kinesis_nguyenvietyen_kinesismod/quantum/quantum.o
pre_process_record_quantum                        .build/obj_kinesis_nguyenvietyen_kinesismod/quantum/quantum.o
                                                  .build/obj_kinesis_nguyenvietyen_kinesismod/quantum/action.o
pre_process_record_user                           .build/obj_kinesis_nguyenvietyen_kinesismod/quantum/quantum.o
print_set_sendchar                                .build/obj_kinesis_nguyenvietyen_kinesismod/platforms/avr/printf.o
                                                  .build/obj_kinesis_nguyenvietyen_kinesismod/quantum/keyboard.o
process_action                                    .build/obj_kinesis_nguyenvietyen_kinesismod/quantum/action.o
process_action_kb                                 .build/obj_kinesis_nguyenvietyen_kinesismod/quantum/quantum.o
process_caps_word                                 .build/obj_kinesis_nguyenvietyen_kinesismod/quantum/process_keycode/process_caps_word.o
                                                  .build/obj_kinesis_nguyenvietyen_kinesismod/quantum/quantum.o
process_grave_esc                                 .build/obj_kinesis_nguyenvietyen_kinesismod/quantum/process_keycode/process_grave_esc.o
                                                  .build/obj_kinesis_nguyenvietyen_kinesismod/quantum/quantum.o
process_magic                                     .build/obj_kinesis_nguyenvietyen_kinesismod/quantum/process_keycode/process_magic.o
                                                  .build/obj_kinesis_nguyenvietyen_kinesismod/quantum/quantum.o
process_record                                    .build/obj_kinesis_nguyenvietyen_kinesismod/quantum/action.o
                                                  .build/obj_kinesis_nguyenvietyen_kinesismod/quantum/action_tapping.o
process_record_handler                            .build/obj_kinesis_nguyenvietyen_kinesismod/quantum/action.o
process_record_kb                                 .build/obj_kinesis_nguyenvietyen_kinesismod/quantum/quantum.o
process_record_nocache                            .build/obj_kinesis_nguyenvietyen_kinesismod/quantum/action.o
process_record_quantum                            .build/obj_kinesis_nguyenvietyen_kinesismod/quantum/quantum.o
process_record_tap_hint                           .build/obj_kinesis_nguyenvietyen_kinesismod/quantum/action.o
                                                  .build/obj_kinesis_nguyenvietyen_kinesismod/quantum/action_tapping.o
process_record_user                               .build/obj_kinesis_nguyenvietyen_kinesismod/quantum/quantum.o
process_space_cadet                               .build/obj_kinesis_nguyenvietyen_kinesismod/quantum/process_keycode/process_space_cadet.o
                                                  .build/obj_kinesis_nguyenvietyen_kinesismod/quantum/quantum.o
protocol_keyboard_task                            .build/obj_kinesis_nguyenvietyen_kinesismod/quantum/main.o
protocol_post_init                                .build/obj_kinesis_nguyenvietyen_kinesismod/lufa.o
                                                  .build/obj_kinesis_nguyenvietyen_kinesismod/quantum/main.o
protocol_post_task                                .build/obj_kinesis_nguyenvietyen_kinesismod/lufa.o
                                                  .build/obj_kinesis_nguyenvietyen_kinesismod/quantum/main.o
protocol_pre_init                                 .build/obj_kinesis_nguyenvietyen_kinesismod/lufa.o
                                                  .build/obj_kinesis_nguyenvietyen_kinesismod/quantum/main.o
protocol_pre_task                                 .build/obj_kinesis_nguyenvietyen_kinesismod/lufa.o
                                                  .build/obj_kinesis_nguyenvietyen_kinesismod/quantum/main.o
protocol_setup                                    .build/obj_kinesis_nguyenvietyen_kinesismod/lufa.o
                                                  .build/obj_kinesis_nguyenvietyen_kinesismod/quantum/main.o
quantum_init                                      .build/obj_kinesis_nguyenvietyen_kinesismod/quantum/keyboard.o
quantum_task                                      .build/obj_kinesis_nguyenvietyen_kinesismod/quantum/keyboard.o
raw_matrix                                        .build/obj_kinesis_nguyenvietyen_kinesismod/quantum/matrix_common.o
read_source_layers_cache                          .build/obj_kinesis_nguyenvietyen_kinesismod/quantum/action_layer.o
                                                  .build/obj_kinesis_nguyenvietyen_kinesismod/quantum/quantum.o
read_source_layers_cache_impl                     .build/obj_kinesis_nguyenvietyen_kinesismod/quantum/action_layer.o
register_code                                     .build/obj_kinesis_nguyenvietyen_kinesismod/quantum/action.o
                                                  .build/obj_kinesis_nguyenvietyen_kinesismod/quantum/send_string/send_string.o
                                                  .build/obj_kinesis_nguyenvietyen_kinesismod/quantum/quantum.o
register_code16                                   .build/obj_kinesis_nguyenvietyen_kinesismod/quantum/quantum.o
register_mods                                     .build/obj_kinesis_nguyenvietyen_kinesismod/quantum/action.o
                                                  .build/obj_kinesis_nguyenvietyen_kinesismod/quantum/process_keycode/process_space_cadet.o
                                                  .build/obj_kinesis_nguyenvietyen_kinesismod/quantum/quantum.o
register_mouse                                    .build/obj_kinesis_nguyenvietyen_kinesismod/quantum/action.o
register_weak_mods                                .build/obj_kinesis_nguyenvietyen_kinesismod/quantum/action.o
                                                  .build/obj_kinesis_nguyenvietyen_kinesismod/quantum/quantum.o
reset_keyboard                                    .build/obj_kinesis_nguyenvietyen_kinesismod/quantum/quantum.o
reset_oneshot_layer                               .build/obj_kinesis_nguyenvietyen_kinesismod/quantum/action_util.o
reset_space_cadet                                 .build/obj_kinesis_nguyenvietyen_kinesismod/quantum/process_keycode/process_space_cadet.o
send_6kro_report                                  .build/obj_kinesis_nguyenvietyen_kinesismod/quantum/action_util.o
send_byte                                         .build/obj_kinesis_nguyenvietyen_kinesismod/quantum/send_string/send_string.o
send_char                                         .build/obj_kinesis_nguyenvietyen_kinesismod/quantum/send_string/send_string.o
send_char_with_delay                              .build/obj_kinesis_nguyenvietyen_kinesismod/quantum/send_string/send_string.o
send_digitizer                                    .build/obj_kinesis_nguyenvietyen_kinesismod/lufa.o
                                                  .build/obj_kinesis_nguyenvietyen_kinesismod/protocol/host.o
send_dword                                        .build/obj_kinesis_nguyenvietyen_kinesismod/quantum/send_string/send_string.o
send_joystick                                     .build/obj_kinesis_nguyenvietyen_kinesismod/lufa.o
                                                  .build/obj_kinesis_nguyenvietyen_kinesismod/protocol/host.o
send_keyboard_report                              .build/obj_kinesis_nguyenvietyen_kinesismod/quantum/action_util.o
                                                  .build/obj_kinesis_nguyenvietyen_kinesismod/quantum/process_keycode/process_grave_esc.o
                                                  .build/obj_kinesis_nguyenvietyen_kinesismod/quantum/process_keycode/process_caps_word.o
                                                  .build/obj_kinesis_nguyenvietyen_kinesismod/quantum/action.o
send_nibble                                       .build/obj_kinesis_nguyenvietyen_kinesismod/quantum/send_string/send_string.o
send_nkro_report                                  .build/obj_kinesis_nguyenvietyen_kinesismod/quantum/action_util.o
send_programmable_button                          .build/obj_kinesis_nguyenvietyen_kinesismod/lufa.o
                                                  .build/obj_kinesis_nguyenvietyen_kinesismod/protocol/host.o
send_report                                       .build/obj_kinesis_nguyenvietyen_kinesismod/lufa.o
send_string                                       .build/obj_kinesis_nguyenvietyen_kinesismod/quantum/send_string/send_string.o
send_string_P                                     .build/obj_kinesis_nguyenvietyen_kinesismod/quantum/send_string/send_string.o
send_string_with_delay                            .build/obj_kinesis_nguyenvietyen_kinesismod/quantum/send_string/send_string.o
send_string_with_delay_P                          .build/obj_kinesis_nguyenvietyen_kinesismod/quantum/send_string/send_string.o
send_word                                         .build/obj_kinesis_nguyenvietyen_kinesismod/quantum/send_string/send_string.o
sendchar                                          .build/obj_kinesis_nguyenvietyen_kinesismod/quantum/logging/sendchar.o
                                                  .build/obj_kinesis_nguyenvietyen_kinesismod/quantum/keyboard.o
set_activity_timestamps                           .build/obj_kinesis_nguyenvietyen_kinesismod/quantum/keyboard.o
set_mods                                          .build/obj_kinesis_nguyenvietyen_kinesismod/quantum/action_util.o
set_oneshot_layer                                 .build/obj_kinesis_nguyenvietyen_kinesismod/quantum/action_util.o
                                                  .build/obj_kinesis_nguyenvietyen_kinesismod/quantum/action.o
set_oneshot_locked_mods                           .build/obj_kinesis_nguyenvietyen_kinesismod/quantum/action_util.o
set_oneshot_mods                                  .build/obj_kinesis_nguyenvietyen_kinesismod/quantum/action_util.o
set_single_persistent_default_layer               .build/obj_kinesis_nguyenvietyen_kinesismod/quantum/quantum.o
set_weak_mods                                     .build/obj_kinesis_nguyenvietyen_kinesismod/quantum/action_util.o
should_mousekey_report_send                       .build/obj_kinesis_nguyenvietyen_kinesismod/quantum/mousekey.o
should_process_keypress                           .build/obj_kinesis_nguyenvietyen_kinesismod/quantum/keyboard.o
shutdown_kb                                       .build/obj_kinesis_nguyenvietyen_kinesismod/quantum/quantum.o
shutdown_quantum                                  .build/obj_kinesis_nguyenvietyen_kinesismod/quantum/quantum.o
shutdown_user                                     .build/obj_kinesis_nguyenvietyen_kinesismod/quantum/quantum.o
sleep_led_disable                                 .build/obj_kinesis_nguyenvietyen_kinesismod/platforms/avr/sleep_led.o
                                                  .build/obj_kinesis_nguyenvietyen_kinesismod/lufa.o
sleep_led_enable                                  .build/obj_kinesis_nguyenvietyen_kinesismod/platforms/avr/sleep_led.o
                                                  .build/obj_kinesis_nguyenvietyen_kinesismod/lufa.o
sleep_led_init                                    .build/obj_kinesis_nguyenvietyen_kinesismod/platforms/avr/sleep_led.o
                                                  .build/obj_kinesis_nguyenvietyen_kinesismod/quantum/keyboard.o
sleep_led_toggle                                  .build/obj_kinesis_nguyenvietyen_kinesismod/platforms/avr/sleep_led.o
soft_reset_keyboard                               .build/obj_kinesis_nguyenvietyen_kinesismod/quantum/quantum.o
source_layers_cache                               .build/obj_kinesis_nguyenvietyen_kinesismod/quantum/action_layer.o
store_or_get_action                               .build/obj_kinesis_nguyenvietyen_kinesismod/quantum/action_layer.o
                                                  .build/obj_kinesis_nguyenvietyen_kinesismod/quantum/action.o
suspend_power_down                                .build/obj_kinesis_nguyenvietyen_kinesismod/platforms/avr/suspend.o
                                                  .build/obj_kinesis_nguyenvietyen_kinesismod/lufa.o
suspend_power_down_kb                             .build/obj_kinesis_nguyenvietyen_kinesismod/platforms/suspend.o
                                                  .build/obj_kinesis_nguyenvietyen_kinesismod/quantum/quantum.o
suspend_power_down_quantum                        .build/obj_kinesis_nguyenvietyen_kinesismod/quantum/quantum.o
                                                  .build/obj_kinesis_nguyenvietyen_kinesismod/platforms/avr/suspend.o
suspend_power_down_user                           .build/obj_kinesis_nguyenvietyen_kinesismod/platforms/suspend.o
suspend_wakeup_condition                          .build/obj_kinesis_nguyenvietyen_kinesismod/platforms/suspend.o
                                                  .build/obj_kinesis_nguyenvietyen_kinesismod/lufa.o
suspend_wakeup_init                               .build/obj_kinesis_nguyenvietyen_kinesismod/platforms/avr/suspend.o
                                                  .build/obj_kinesis_nguyenvietyen_kinesismod/lufa.o
suspend_wakeup_init_kb                            .build/obj_kinesis_nguyenvietyen_kinesismod/platforms/suspend.o
                                                  .build/obj_kinesis_nguyenvietyen_kinesismod/quantum/quantum.o
suspend_wakeup_init_quantum                       .build/obj_kinesis_nguyenvietyen_kinesismod/quantum/quantum.o
                                                  .build/obj_kinesis_nguyenvietyen_kinesismod/platforms/avr/suspend.o
suspend_wakeup_init_user                          .build/obj_kinesis_nguyenvietyen_kinesismod/platforms/suspend.o
switch_events                                     .build/obj_kinesis_nguyenvietyen_kinesismod/quantum/keyboard.o
tap_code                                          .build/obj_kinesis_nguyenvietyen_kinesismod/quantum/action.o
                                                  .build/obj_kinesis_nguyenvietyen_kinesismod/quantum/process_keycode/process_space_cadet.o
                                                  .build/obj_kinesis_nguyenvietyen_kinesismod/quantum/send_string/send_string.o
tap_code16                                        .build/obj_kinesis_nguyenvietyen_kinesismod/quantum/quantum.o
tap_code16_delay                                  .build/obj_kinesis_nguyenvietyen_kinesismod/quantum/quantum.o
tap_code_delay                                    .build/obj_kinesis_nguyenvietyen_kinesismod/quantum/action.o
                                                  .build/obj_kinesis_nguyenvietyen_kinesismod/quantum/send_string/send_string.o
tap_random_base64                                 .build/obj_kinesis_nguyenvietyen_kinesismod/quantum/send_string/send_string.o
timer_clear                                       .build/obj_kinesis_nguyenvietyen_kinesismod/platforms/avr/timer.o
timer_count                                       .build/obj_kinesis_nguyenvietyen_kinesismod/platforms/avr/timer.o
timer_elapsed                                     .build/obj_kinesis_nguyenvietyen_kinesismod/platforms/avr/timer.o
                                                  .build/obj_kinesis_nguyenvietyen_kinesismod/platforms/timer.o
                                                  .build/obj_kinesis_nguyenvietyen_kinesismod/quantum/process_keycode/process_space_cadet.o
                                                  .build/obj_kinesis_nguyenvietyen_kinesismod/quantum/mousekey.o
                                                  .build/obj_kinesis_nguyenvietyen_kinesismod/quantum/debounce/sym_defer_g.o
timer_elapsed32                                   .build/obj_kinesis_nguyenvietyen_kinesismod/platforms/avr/timer.o
                                                  .build/obj_kinesis_nguyenvietyen_kinesismod/quantum/keyboard.o
                                                  .build/obj_kinesis_nguyenvietyen_kinesismod/quantum/led.o
timer_elapsed_fast                                .build/obj_kinesis_nguyenvietyen_kinesismod/platforms/timer.o
timer_init                                        .build/obj_kinesis_nguyenvietyen_kinesismod/platforms/avr/timer.o
                                                  .build/obj_kinesis_nguyenvietyen_kinesismod/quantum/keyboard.o
timer_read                                        .build/obj_kinesis_nguyenvietyen_kinesismod/platforms/avr/timer.o
                                                  .build/obj_kinesis_nguyenvietyen_kinesismod/platforms/timer.o
                                                  .build/obj_kinesis_nguyenvietyen_kinesismod/quantum/process_keycode/process_space_cadet.o
                                                  .build/obj_kinesis_nguyenvietyen_kinesismod/quantum/mousekey.o
                                                  .build/obj_kinesis_nguyenvietyen_kinesismod/quantum/caps_word.o
                                                  .build/obj_kinesis_nguyenvietyen_kinesismod/quantum/debounce/sym_defer_g.o
                                                  .build/obj_kinesis_nguyenvietyen_kinesismod/quantum/keyboard.o
timer_read32                                      .build/obj_kinesis_nguyenvietyen_kinesismod/platforms/avr/timer.o
                                                  .build/obj_kinesis_nguyenvietyen_kinesismod/quantum/keyboard.o
                                                  .build/obj_kinesis_nguyenvietyen_kinesismod/quantum/led.o
timer_read_fast                                   .build/obj_kinesis_nguyenvietyen_kinesismod/platforms/timer.o
tp_buttons                                        .build/obj_kinesis_nguyenvietyen_kinesismod/quantum/action.o
unregister_code                                   .build/obj_kinesis_nguyenvietyen_kinesismod/quantum/action.o
                                                  .build/obj_kinesis_nguyenvietyen_kinesismod/quantum/send_string/send_string.o
                                                  .build/obj_kinesis_nguyenvietyen_kinesismod/quantum/quantum.o
unregister_code16                                 .build/obj_kinesis_nguyenvietyen_kinesismod/quantum/quantum.o
unregister_mods                                   .build/obj_kinesis_nguyenvietyen_kinesismod/quantum/action.o
                                                  .build/obj_kinesis_nguyenvietyen_kinesismod/quantum/process_keycode/process_space_cadet.o
                                                  .build/obj_kinesis_nguyenvietyen_kinesismod/quantum/quantum.o
unregister_weak_mods                              .build/obj_kinesis_nguyenvietyen_kinesismod/quantum/action.o
                                                  .build/obj_kinesis_nguyenvietyen_kinesismod/quantum/caps_word.o
                                                  .build/obj_kinesis_nguyenvietyen_kinesismod/quantum/quantum.o
update_source_layers_cache                        .build/obj_kinesis_nguyenvietyen_kinesismod/quantum/action_layer.o
                                                  .build/obj_kinesis_nguyenvietyen_kinesismod/quantum/quantum.o
update_source_layers_cache_impl                   .build/obj_kinesis_nguyenvietyen_kinesismod/quantum/action_layer.o
update_tri_layer                                  .build/obj_kinesis_nguyenvietyen_kinesismod/quantum/action_layer.o
update_tri_layer_state                            .build/obj_kinesis_nguyenvietyen_kinesismod/quantum/action_layer.o
usb_connected_state                               .build/obj_kinesis_nguyenvietyen_kinesismod/protocol/lufa/usb_util.o
                                                  .build/obj_kinesis_nguyenvietyen_kinesismod/protocol/usb_util.o
usb_device_state                                  .build/obj_kinesis_nguyenvietyen_kinesismod/protocol/usb_device_state.o
usb_device_state_init                             .build/obj_kinesis_nguyenvietyen_kinesismod/protocol/usb_device_state.o
                                                  .build/obj_kinesis_nguyenvietyen_kinesismod/lufa.o
usb_device_state_set_configuration                .build/obj_kinesis_nguyenvietyen_kinesismod/protocol/usb_device_state.o
                                                  .build/obj_kinesis_nguyenvietyen_kinesismod/lufa.o
usb_device_state_set_reset                        .build/obj_kinesis_nguyenvietyen_kinesismod/protocol/usb_device_state.o
                                                  .build/obj_kinesis_nguyenvietyen_kinesismod/lufa.o
usb_device_state_set_resume                       .build/obj_kinesis_nguyenvietyen_kinesismod/protocol/usb_device_state.o
                                                  .build/obj_kinesis_nguyenvietyen_kinesismod/lufa.o
usb_device_state_set_suspend                      .build/obj_kinesis_nguyenvietyen_kinesismod/protocol/usb_device_state.o
                                                  .build/obj_kinesis_nguyenvietyen_kinesismod/lufa.o
usb_disconnect                                    .build/obj_kinesis_nguyenvietyen_kinesismod/protocol/lufa/usb_util.o
                                                  .build/obj_kinesis_nguyenvietyen_kinesismod/protocol/usb_util.o
usb_vbus_state                                    .build/obj_kinesis_nguyenvietyen_kinesismod/protocol/lufa/usb_util.o
                                                  .build/obj_kinesis_nguyenvietyen_kinesismod/protocol/usb_util.o
xfunc_out                                         .build/obj_kinesis_nguyenvietyen_kinesismod/platforms/avr/xprintf.o
                                                  .build/obj_kinesis_nguyenvietyen_kinesismod/platforms/avr/printf.o
xitoa                                             .build/obj_kinesis_nguyenvietyen_kinesismod/platforms/avr/xprintf.o
xputc                                             .build/obj_kinesis_nguyenvietyen_kinesismod/platforms/avr/xprintf.o
xputs                                             .build/obj_kinesis_nguyenvietyen_kinesismod/platforms/avr/xprintf.o
